Archive member included to satisfy reference by file (symbol)

c:/program files (x86)/microchip/xc32/v2.30/bin/bin/../../lib/gcc/pic32c/6.2.1/../../../../pic32c/lib\libpic32c.a(data_init.o)
                              build/default/production/_ext/1171490990/startup_xc32.o (__pic32c_data_initialization)
c:/program files (x86)/microchip/xc32/v2.30/bin/bin/../../lib/gcc/pic32c/6.2.1\libgcc.a(_thumb1_case_uqi.o)
                              build/default/production/_ext/318156199/PDSource_App.o (__gnu_thumb1_case_uqi)
c:/program files (x86)/microchip/xc32/v2.30/bin/bin/../../lib/gcc/pic32c/6.2.1\libgcc.a(_thumb1_case_shi.o)
                              build/default/production/_ext/840851172/policy_engine.o (__gnu_thumb1_case_shi)
c:/program files (x86)/microchip/xc32/v2.30/bin/bin/../../lib/gcc/pic32c/6.2.1\libgcc.a(_thumb1_case_uhi.o)
                              build/default/production/_ext/840851172/policy_engine.o (__gnu_thumb1_case_uhi)
c:/program files (x86)/microchip/xc32/v2.30/bin/bin/../../lib/gcc/pic32c/6.2.1\libgcc.a(_udivsi3.o)
                              build/default/production/_ext/1955867357/plib_sercom0_spi.o (__aeabi_uidiv)
c:/program files (x86)/microchip/xc32/v2.30/bin/bin/../../lib/gcc/pic32c/6.2.1\libgcc.a(_divsi3.o)
                              build/default/production/_ext/840851172/policy_manager.o (__aeabi_idiv)
c:/program files (x86)/microchip/xc32/v2.30/bin/bin/../../lib/gcc/pic32c/6.2.1\libgcc.a(_dvmd_tls.o)
                              c:/program files (x86)/microchip/xc32/v2.30/bin/bin/../../lib/gcc/pic32c/6.2.1\libgcc.a(_udivsi3.o) (__aeabi_idiv0)
c:/program files (x86)/microchip/xc32/v2.30/bin/bin/../../lib/gcc/pic32c/6.2.1\libgcc.a(_fixunssfsi.o)
                              build/default/production/_ext/1936174342/PB_Helper.o (__aeabi_f2uiz)
c:/program files (x86)/microchip/xc32/v2.30/bin/bin/../../lib/gcc/pic32c/6.2.1\libgcc.a(_fixunsdfsi.o)
                              build/default/production/_ext/1955509679/plib_sercom3_i2c.o (__aeabi_d2uiz)
c:/program files (x86)/microchip/xc32/v2.30/bin/bin/../../lib/gcc/pic32c/6.2.1\libgcc.a(divsf3.o)
                              build/default/production/_ext/1955509679/plib_sercom3_i2c.o (__aeabi_fdiv)
c:/program files (x86)/microchip/xc32/v2.30/bin/bin/../../lib/gcc/pic32c/6.2.1\libgcc.a(mulsf3.o)
                              build/default/production/_ext/1936174342/PB_Helper.o (__aeabi_fmul)
c:/program files (x86)/microchip/xc32/v2.30/bin/bin/../../lib/gcc/pic32c/6.2.1\libgcc.a(subsf3.o)
                              c:/program files (x86)/microchip/xc32/v2.30/bin/bin/../../lib/gcc/pic32c/6.2.1\libgcc.a(_fixunssfsi.o) (__aeabi_fsub)
c:/program files (x86)/microchip/xc32/v2.30/bin/bin/../../lib/gcc/pic32c/6.2.1\libgcc.a(fixsfsi.o)
                              c:/program files (x86)/microchip/xc32/v2.30/bin/bin/../../lib/gcc/pic32c/6.2.1\libgcc.a(_fixunssfsi.o) (__aeabi_f2iz)
c:/program files (x86)/microchip/xc32/v2.30/bin/bin/../../lib/gcc/pic32c/6.2.1\libgcc.a(floatsisf.o)
                              build/default/production/_ext/840851172/typeC_control.o (__aeabi_i2f)
c:/program files (x86)/microchip/xc32/v2.30/bin/bin/../../lib/gcc/pic32c/6.2.1\libgcc.a(floatunsisf.o)
                              build/default/production/_ext/1955509679/plib_sercom3_i2c.o (__aeabi_ui2f)
c:/program files (x86)/microchip/xc32/v2.30/bin/bin/../../lib/gcc/pic32c/6.2.1\libgcc.a(adddf3.o)
                              build/default/production/_ext/1955509679/plib_sercom3_i2c.o (__aeabi_dadd)
c:/program files (x86)/microchip/xc32/v2.30/bin/bin/../../lib/gcc/pic32c/6.2.1\libgcc.a(divdf3.o)
                              build/default/production/_ext/840851172/typeC_control.o (__aeabi_ddiv)
c:/program files (x86)/microchip/xc32/v2.30/bin/bin/../../lib/gcc/pic32c/6.2.1\libgcc.a(muldf3.o)
                              build/default/production/_ext/1955509679/plib_sercom3_i2c.o (__aeabi_dmul)
c:/program files (x86)/microchip/xc32/v2.30/bin/bin/../../lib/gcc/pic32c/6.2.1\libgcc.a(subdf3.o)
                              build/default/production/_ext/1955509679/plib_sercom3_i2c.o (__aeabi_dsub)
c:/program files (x86)/microchip/xc32/v2.30/bin/bin/../../lib/gcc/pic32c/6.2.1\libgcc.a(fixdfsi.o)
                              c:/program files (x86)/microchip/xc32/v2.30/bin/bin/../../lib/gcc/pic32c/6.2.1\libgcc.a(_fixunsdfsi.o) (__aeabi_d2iz)
c:/program files (x86)/microchip/xc32/v2.30/bin/bin/../../lib/gcc/pic32c/6.2.1\libgcc.a(floatsidf.o)
                              build/default/production/_ext/840851172/typeC_control.o (__aeabi_i2d)
c:/program files (x86)/microchip/xc32/v2.30/bin/bin/../../lib/gcc/pic32c/6.2.1\libgcc.a(extendsfdf2.o)
                              build/default/production/_ext/1955509679/plib_sercom3_i2c.o (__aeabi_f2d)
c:/program files (x86)/microchip/xc32/v2.30/bin/bin/../../lib/gcc/pic32c/6.2.1\libgcc.a(truncdfsf2.o)
                              build/default/production/_ext/840851172/typeC_control.o (__aeabi_d2f)
c:/program files (x86)/microchip/xc32/v2.30/bin/bin/../../lib/gcc/pic32c/6.2.1\libgcc.a(_arm_cmpdf2.o)
                              c:/program files (x86)/microchip/xc32/v2.30/bin/bin/../../lib/gcc/pic32c/6.2.1\libgcc.a(_fixunsdfsi.o) (__aeabi_dcmpge)
c:/program files (x86)/microchip/xc32/v2.30/bin/bin/../../lib/gcc/pic32c/6.2.1\libgcc.a(_arm_cmpsf2.o)
                              c:/program files (x86)/microchip/xc32/v2.30/bin/bin/../../lib/gcc/pic32c/6.2.1\libgcc.a(_fixunssfsi.o) (__aeabi_fcmpge)
c:/program files (x86)/microchip/xc32/v2.30/bin/bin/../../lib/gcc/pic32c/6.2.1\libgcc.a(_clzsi2.o)
                              c:/program files (x86)/microchip/xc32/v2.30/bin/bin/../../lib/gcc/pic32c/6.2.1\libgcc.a(divsf3.o) (__clzsi2)
c:/program files (x86)/microchip/xc32/v2.30/bin/bin/../../lib/gcc/pic32c/6.2.1\libgcc.a(eqsf2.o)
                              c:/program files (x86)/microchip/xc32/v2.30/bin/bin/../../lib/gcc/pic32c/6.2.1\libgcc.a(_arm_cmpsf2.o) (__eqsf2)
c:/program files (x86)/microchip/xc32/v2.30/bin/bin/../../lib/gcc/pic32c/6.2.1\libgcc.a(gesf2.o)
                              c:/program files (x86)/microchip/xc32/v2.30/bin/bin/../../lib/gcc/pic32c/6.2.1\libgcc.a(_arm_cmpsf2.o) (__gesf2)
c:/program files (x86)/microchip/xc32/v2.30/bin/bin/../../lib/gcc/pic32c/6.2.1\libgcc.a(lesf2.o)
                              c:/program files (x86)/microchip/xc32/v2.30/bin/bin/../../lib/gcc/pic32c/6.2.1\libgcc.a(_arm_cmpsf2.o) (__lesf2)
c:/program files (x86)/microchip/xc32/v2.30/bin/bin/../../lib/gcc/pic32c/6.2.1\libgcc.a(eqdf2.o)
                              c:/program files (x86)/microchip/xc32/v2.30/bin/bin/../../lib/gcc/pic32c/6.2.1\libgcc.a(_arm_cmpdf2.o) (__eqdf2)
c:/program files (x86)/microchip/xc32/v2.30/bin/bin/../../lib/gcc/pic32c/6.2.1\libgcc.a(gedf2.o)
                              c:/program files (x86)/microchip/xc32/v2.30/bin/bin/../../lib/gcc/pic32c/6.2.1\libgcc.a(_arm_cmpdf2.o) (__gedf2)
c:/program files (x86)/microchip/xc32/v2.30/bin/bin/../../lib/gcc/pic32c/6.2.1\libgcc.a(ledf2.o)
                              c:/program files (x86)/microchip/xc32/v2.30/bin/bin/../../lib/gcc/pic32c/6.2.1\libgcc.a(_arm_cmpdf2.o) (__ledf2)
c:/program files (x86)/microchip/xc32/v2.30/bin/bin/../../lib/gcc/pic32c/6.2.1/../../../../pic32c/lib\libc.a(lib_a-init.o)
                              build/default/production/_ext/1171490990/startup_xc32.o (__libc_init_array)
c:/program files (x86)/microchip/xc32/v2.30/bin/bin/../../lib/gcc/pic32c/6.2.1/../../../../pic32c/lib\libc.a(lib_a-memcpy-stub.o)
                              build/default/production/_ext/1593096446/plib_nvmctrl.o (memcpy)
c:/program files (x86)/microchip/xc32/v2.30/bin/bin/../../lib/gcc/pic32c/6.2.1/../../../../pic32c/lib\libc.a(lib_a-memset.o)
                              build/default/production/_ext/840851172/cfg_globals.o (memset)

Allocating common symbols
Common symbol       size              file

gasPRLRecvBuff      0x48              build/default/production/_ext/840851172/int_globals.o
gasPBIntPortParam   0x20              build/default/production/_ext/840851172/int_globals.o
TC0_CallbackObject  0x8               build/default/production/_ext/829342655/plib_tc0.o
gasChunkSM          0x18              build/default/production/_ext/840851172/int_globals.o
gasTypeCcontrol     0x20              build/default/production/_ext/840851172/int_globals.o
gsPBIntSysParam     0xc               build/default/production/_ext/840851172/int_globals.o
gasPolicy_Engine    0x28              build/default/production/_ext/840851172/int_globals.o
eicCallbackObject   0xc0              build/default/production/_ext/60167341/plib_eic.o
gasPRL              0x18              build/default/production/_ext/840851172/int_globals.o
gu8PBTimerID        0x1               build/default/production/_ext/840851172/int_globals.o
gasDPM              0x30              build/default/production/_ext/840851172/int_globals.o
gasExtendedMsgBuff  0x218             build/default/production/_ext/840851172/int_globals.o
gasCfgStatusData    0x1c0             build/default/production/_ext/840851172/cfg_globals.o
gu8AttachSeq        0x1               build/default/production/_ext/840851172/int_globals.o
gasPDTimers         0x50              build/default/production/_ext/840851172/int_globals.o

Microchip PIC32 Memory-Usage Report

ROM Program-Memory Usage
section                    address  length [bytes]      (dec)  Description
-------                 ----------  -------------------------  -----------
.vectors                         0           0xa4         164   
.text                         0xa4           0x20          32  App's exec code 
.text.PE_SrcRunStateMac       0xc4          0x944        2372   
.text.TypeC_RunStateMac      0xa08          0x658        1624   
.text                       0x1060          0xf18        3864  App's exec code 
.text.PE_SnkRunStateMac     0x1f78          0x3a8         936   
.text.PB_HandlePPMEvent     0x2320          0x32c         812   
.text.TypeC_HandleISR       0x264c          0x31c         796   
.text.PE_RunCommonState     0x2968          0x310         784   
.text                       0x2c78          0x2f4         756  App's exec code 
.text.TypeC_ConfigureVB     0x2f6c          0x2d8         728   
.text.PE_ReceiveMsgHand     0x3244          0x294         660   
.text.TypeC_InitPort        0x34d8          0x26c         620   
.text.PRL_ProcessRecvdM     0x3744          0x24c         588   
.text.DPM_PowerFaultHan     0x3990          0x240         576   
.text.PRL_TransmitMsg       0x3bd0          0x1e4         484   
.text                       0x3db4          0x1d8         472  App's exec code 
.text.TypeC_EnabDisVCON     0x3f8c          0x1d4         468   
.text.PRL_Init              0x4160          0x1c0         448   
.text                       0x4320          0x1c0         448  App's exec code 
.text.DPM_Evaluate_Rece     0x44e0          0x180         384   
.text.PRL_RunChunkState     0x4660          0x168         360   
.text.PRL_HandleISR         0x47c8          0x15c         348   
.text.CFG_LoadDefaults      0x4924          0x150         336   
.text.PDStack_Events        0x4a74          0x148         328   
.text.SERCOM3_I2C_Inter     0x4bbc          0x124         292   
.text.PE_RunStateMachin     0x4ce0          0x120         288   
.text.SERCOM0_SPI_Write     0x4e00          0x108         264   
.text.DPM_ValidateReque     0x4f08          0x108         264   
.text                       0x5010          0x100         256  App's exec code 
.text.PRL_BuildTxPacket     0x5110           0xd4         212   
.text.PRL_ReceiveMsg        0x51e4           0xd4         212   
.text.CLOCK_Initialize      0x52b8           0xd0         208   
.text.UPD_CheckAndDisab     0x5388           0xc4         196   
.text.MchpPSF_Init          0x544c           0xb4         180   
.text.TypeC_SrcIntrHand     0x5500           0xb4         180   
.text                       0x55b4           0xb0         176  App's exec code 
.text.PB_CalculateNegot     0x5664           0xa8         168   
.text                       0x570c           0xa8         168  App's exec code 
.text.EIC_Initialize        0x57b4           0xa4         164   
.text.MPQDCDC_Initializ     0x5858           0xa0         160   
.text                       0x58f8           0xa0         160  App's exec code 
.text.TypeC_CCVBUSIntrH     0x5998           0x9c         156   
.text.DPM_CalculateAndS     0x5a34           0x98         152   
.text                       0x5acc           0x98         152  App's exec code 
.text.TypeC_VCONN_ON_In     0x5b64           0x94         148   
.text.PB_Init               0x5bf8           0x90         144   
.text.PB_ReturnHigherPr     0x5c88           0x90         144   
.text.DPM_Get_Source_Ca     0x5d18           0x90         144   
.text.__pic32c_data_ini     0x5da8           0x90         144   
.text.PRL_IncrementMsgI     0x5e38           0x8c         140   
.text.TypeC_SetRpCollAv     0x5ec4           0x8c         140   
.text.UPDIntr_AlertHand     0x5f50           0x8c         140   
.text                       0x5fdc           0x8c         140  App's exec code 
.text.PB_UpdatePDO          0x6068           0x88         136   
.text.DPM_VCONNONTimerE     0x60f0           0x88         136   
.text.DPM_HandleClientR     0x6178           0x88         136   
.text.PRL_TCHChunkSMSta     0x6200           0x88         136   
.text.TypeC_SetCCSample     0x6288           0x84         132   
.text.UPD_PIOHandleISR      0x630c           0x84         132   
.text.UPD_ConfigPwrFaul     0x6390           0x84         132   
.text                       0x6414           0x84         132  App's exec code 
.text.PB_ReclaimPower       0x6498           0x80         128   
.text.TypeC_VCONNONErro     0x6518           0x80         128   
.text.PB_ReturnHigherPr     0x6598           0x7c         124   
.text.PDTimer_KillPortT     0x6614           0x7c         124   
.text.PE_IsMsgUnsupport     0x6690           0x7c         124   
.text.DPM_Init              0x670c           0x7c         124   
.text.TypeC_SnkIntrHand     0x6788           0x7c         124   
.text                       0x6804           0x7c         124  App's exec code 
.text.PB_CalculateRequi     0x6880           0x78         120   
.text                       0x68f8           0xee         238  App's exec code 
.text.Dummy_Handler         0x69e6            0x2           2   
.text.PB_InitializePort     0x69e8           0x74         116   
.text.DPM_UpdateAdverti     0x6a5c           0x74         116   
.text.PRL_SendCableorHa     0x6ad0           0x74         116   
.text                       0x6b44          0x1cc         460  App's exec code 
.dinit                      0x6d10           0x70         112   
.text.NVIC_Initialize       0x6d80           0x6c         108   
.text.UPD_FaultInInit       0x6dec           0x6c         108   
.text.PB_SinkCapsReceiv     0x6e58           0x68         104   
.text                       0x6ec0           0x68         104  App's exec code 
.text.PORT_Initialize       0x6f28           0x64         100   
.text.PDTimer_Start         0x6f8c           0x64         100   
.text.PE_SubStateChange     0x6ff0           0x64         100   
.text.PRL_TxRxMsgID_Res     0x7054           0x64         100   
.text.SAMD20_UPD350Aler     0x70b8           0x60          96   
.text.PWRCTRL_initializ     0x7118           0x60          96   
.text.PRL_UpdateTotalCh     0x7178           0x60          96   
.text.PDTimer_Interrupt     0x71d8           0x5c          92   
.text.PRL_RCHChunkSMSta     0x7234           0x5c          92   
.text.TypeC_Reset_VCONN     0x7290           0x5c          92   
.text.Reset_Handler         0x72ec           0x58          88   
.text.SAMD20_I2CDCDCAle     0x7344           0x58          88   
.text.PE_InitPort           0x739c           0x58          88   
.text.DPM_TypeCVBus5VOn     0x73f4           0x58          88   
.text.PWRCTRL_ConfigDCD     0x744c           0x58          88   
.text.PRL_SetCollisionA     0x74a4           0x58          88   
.text.SERCOM3_I2C_Initi     0x74fc           0x54          84   
.text.PB_IdentifyLowest     0x7550           0x54          84   
.text.PWRCTRL_ConfigVBU     0x75a4           0x54          84   
.text.TypeC_ConfigCCCom     0x75f8           0x54          84   
.text.TypeC_SetPowerRol     0x764c           0x54          84   
.text.TypeC_DecodeSourc     0x76a0           0x54          84   
.text.UPD_FindVBusCorre     0x76f4           0x54          84   
.text.PRL_FormRequestCh     0x7748           0x50          80   
.text.PRL_ConfigureBIST     0x7798           0x50          80   
.text.MPQDCDC_SetPortPo     0x77e8           0x4c          76   
.text.PB_SetRenegotiati     0x7834           0x4c          76   
.text.PE_ValidateMessag     0x7880           0x4c          76   
.text.PE_IsPolicyEngine     0x78cc           0x4c          76   
.text.PRL_TxOriginalCBf     0x7918           0x4c          76   
.text.TypeC_SetDefaultR     0x7964           0x4c          76   
.text                       0x79b0           0x4a          74  App's exec code 
.text.NonMaskableInt_Ha     0x79fa            0x2           2   
.text                       0x79fc           0x48          72  App's exec code 
.text.SERCOM3_I2C_Initi     0x7a44           0x48          72   
.text.DPM_SetPortPower      0x7a8c           0x48          72   
.text.DPM_StoreVDMECabl     0x7ad4           0x48          72   
.text.__libc_init_array     0x7b1c           0x48          72   
.text.UPD_GPIOSetDeboun     0x7b64           0x46          70   
.text.HardFault_Handler     0x7baa            0x2           2   
.text.MPQDCDC_FaultHand     0x7bac           0x44          68   
.text.TC0_TimerInitiali     0x7bf0           0x40          64   
.text.PE_StateChange_Tr     0x7c30           0x40          64   
.text.DPM_ChangeCapabil     0x7c70           0x40          64   
.text.PRL_UpdateSpecAnd     0x7cb0           0x40          64   
.text.PRL_ProcessRxFIFO     0x7cf0           0x40          64   
.text.PRL_ResetChunkSM      0x7d30           0x40          64   
.text.TypeC_SetVBUSComp     0x7d70           0x40          64   
.text.EIC_InterruptHand     0x7db0           0x3c          60   
.text.PB_UpdateAttachSe     0x7dec           0x3c          60   
.text.PB_NegotiateIfReq     0x7e28           0x3c          60   
.text.PE_HandleRcvdMsgA     0x7e64           0x3c          60   
.text.DPM_StateMachineI     0x7ea0           0x3c          60   
.text.DPM_GetVBUSVoltag     0x7edc           0x3c          60   
.text.PRL_HRorCRCompltI     0x7f18           0x3c          60   
.text.PRL_CommitPending     0x7f54           0x3c          60   
.text.TypeC_SetCCDeboun     0x7f90           0x3c          60   
.text.UPD_EnableFaultIn     0x7fcc           0x3c          60   
.text                       0x8008           0x78         120  App's exec code 
.text.UPD_RegisterReadI     0x8080           0x3a          58   
.text.PE_SendNotSupport     0x80bc           0x38          56   
.text.PRL_FormSOPTypeMs     0x80f4           0x38          56   
.text.PRL_EnableRx          0x812c           0x38          56   
.text.UPD_RegisterWrite     0x8164           0x38          56   
.text                       0x819c           0x38          56  App's exec code 
.text.SAMD20_DriveChipS     0x81d4           0x34          52   
.text.SAMD20_ResetUPD35     0x8208           0x34          52   
.text.PE_SendHardResetM     0x823c           0x34          52   
.text.PE_SendSoftResetM     0x8270           0x34          52   
.text.DPM_ComparePDOs       0x82a4           0x34          52   
.text.PRL_ProtocolReset     0x82d8           0x34          52   
.text.MPQDCDC_Write         0x830c           0x32          50   
.text.PB_ReleaseExcessP     0x8340           0x30          48   
.text.PE_FindVDMStateAc     0x8370           0x30          48   
.text.DPM_EnablePowerFa     0x83a0           0x30          48   
.text                       0x83d0           0x2e          46  App's exec code 
.text.SERCOM3_I2C_Write     0x8400           0x2c          44   
.text.SERCOM0_SPI_Initi     0x842c           0x2c          44   
.text.PB_IdentifyHighes     0x8458           0x2c          44   
.text.PDTimer_Kill          0x8484           0x2c          44   
.text.DPM_ResetNewPDOPa     0x84b0           0x2c          44   
.text.DPM_StoreSinkCapa     0x84dc           0x2c          44   
.text.DPM_VBUSOnOffTime     0x8508           0x2c          44   
.text.UPD_RegByteSetBit     0x8534           0x2c          44   
.text.UPD_RegByteClearB     0x8560           0x2c          44   
.text.UPD_GPIOUpdateOut     0x858c           0x2c          44   
.text.SERCOM3_I2C_Write     0x85b8           0x28          40   
.text.SAMD20_SPIReaddri     0x85e0           0x28          40   
.text.MPQDCDC_GetFaultS     0x8608           0x28          40   
.text.PB_IsNegotiationI     0x8630           0x28          40   
.text.PB_InitiateNextPo     0x8658           0x28          40   
.text.DPM_Get_Sink_Capa     0x8680           0x28          40   
.text.DPM_VCONNOFFError     0x86a8           0x28          40   
.text.PRL_FormNonSOPTyp     0x86d0           0x28          40   
.text.PRL_IsAnyMsgPendi     0x86f8           0x28          40   
.text.main                  0x8720           0x28          40   
.text.SERCOM3_I2C_IsBus     0x8748           0x24          36   
.text.TC0_TimerInterrup     0x876c           0x24          36   
.text.MchpPSF_RUN           0x8790           0x24          36   
.text.PE_HandleUnExpect     0x87b4           0x24          36   
.text.PRL_ChunkStateCha     0x87d8           0x24          36   
.text.TypeC_VCONNDis_On     0x87fc           0x24          36   
.text.TypeC_SetDataRole     0x8820           0x22          34   
.text.PB_ChangePortStat     0x8844           0x20          32   
.text.PB_InitiateGetSin     0x8864           0x20          32   
.text.PB_InitiateNegoti     0x8884           0x20          32   
.text.IntGlobals_PDInit     0x88a4           0x20          32   
.text.PDTimer_Init          0x88c4           0x20          32   
.text.PRL_PHYLayerReset     0x88e4           0x20          32   
.text.UPD_RegisterWrite     0x8904           0x20          32   
.text.UPD_RegisterRead      0x8924           0x20          32   
.text.EIC_CallbackRegis     0x8944           0x1c          28   
.text.SAMD20_HWTimerIni     0x8960           0x1c          28   
.text.PE_NoResponseTime     0x897c           0x1c          28   
.text.PE_KillPolicyEngi     0x8998           0x1c          28   
.text.PRL_CASinkTxTimer     0x89b4           0x1c          28   
.text.PRL_KillCAorChunk     0x89d0           0x1c          28   
.text.UPD_ConfigurePIOD     0x89ec           0x1c          28   
.text.UPD_GPIOEnableDis     0x8a08           0x1a          26   
.text.UPD_GPIOSetDirect     0x8a22           0x1a          26   
.text.UPD_GPIOSetBuffer     0x8a3c           0x1a          26   
.text.UPD_GPIOSetClearO     0x8a56           0x1a          26   
.text.UPD_GPIOInit          0x8a70           0x1a          26   
.text.TC0_TimerStart        0x8a8c           0x18          24   
.text.SYS_Initialize        0x8aa4           0x18          24   
.text.DPM_GetTypeCState     0x8abc           0x18          24   
.text.DPM_IsPort_VCONN_     0x8ad4           0x18          24   
.text.DPM_VCONNPowerGoo     0x8aec           0x18          24   
.rodata.au16BBTxFallDAC     0x8b04           0x18          24   
.rodata.au16BBTxRiseDAC     0x8b1c           0x18          24   
.text.TypeC_PowerGood_T     0x8b34           0x18          24   
.text.TypeC_StateChange     0x8b4c           0x18          24   
.text.TypeC_KillTypeCTi     0x8b64           0x18          24   
.text.UPD_GPIOSetIntrAl     0x8b7c           0x18          24   
.text.DPM_RunStateMachi     0x8b94           0x16          22   
.text.SAMD20_UPD350Rese     0x8bac           0x14          20   
.text.SAMD20_EnterCriti     0x8bc0           0x14          20   
.text.SAMD20_ExitCritic     0x8bd4           0x14          20   
.rodata.u32aPDOPower        0x8be8           0x14          20   
.text.PE_StateChange_Ti     0x8bfc           0x14          20   
.text.PE_SubStateChange     0x8c10           0x14          20   
.text.PE_SetHardResetRe     0x8c24           0x14          20   
.text.DPM_GetPoweredCab     0x8c38           0x14          20   
.text.DPM_CurrentCutDow     0x8c4c           0x14          20   
.text.DPM_IsHardResetIn     0x8c60           0x14          20   
.text.DPM_ResetVCONNErr     0x8c74           0x14          20   
.text.UPD_GPIOGenericOu     0x8c88           0x14          20   
.text.PRL_ProtocolReset     0x8c9c           0x14          20   
.text.TypeC_SubStateCha     0x8cb0           0x14          20   
.text                       0x8cc4           0x3c          60  App's exec code 
.text.SAMD20_MemCpy         0x8d00           0x12          18   
.text.UPD_RegWriteByte      0x8d12           0x12          18   
.text.UPD_RegWriteWord      0x8d24           0x12          18   
.text.UPD_RegReadByte       0x8d36           0x12          18   
.text.UPD_RegReadWord       0x8d48           0x12          18   
.text.EIC_InterruptEnab     0x8d5c           0x10          16   
.text.SAMD20_SPIWritedr     0x8d6c           0x10          16   
.text.DPM_SetTypeCState     0x8d7c           0x10          16   
.text.DPM_VConnOnOff        0x8d8c           0x10          16   
.rodata.au16CCThrVal        0x8d9c           0x10          16   
.text.memset                0x8dac           0x10          16   
.text.SAMD20_I2CDCDCWri     0x8dbc            0xe          14   
.text.NVMCTRL_Initializ     0x8dcc            0xc          12   
.text.PORT_GroupWrite       0x8dd8            0xc          12   
.text.TC0_TimerCallback     0x8de4            0xc          12   
.text.SAMD20_HWTimerCal     0x8df0            0xc          12   
.text.MPQDCDC_HandleAle     0x8dfc            0xc          12   
.text.SAMD20_I2CDCDCAle     0x8e08            0xa          10   
.text.SAMD20_UPD350Aler     0x8e12            0xa          10   
.text.SAMD20_SPIInitial     0x8e1c            0xa          10   
.text.SAMD20_I2CDCDCIni     0x8e26            0xa          10   
.rodata.au8BMCEncoderRe     0x8e30            0xa          10   
.text.SAMD20_I2CDCDCWri     0x8e3a            0x8           8   
.text.SAMD20_I2CDCDCIsB     0x8e42            0x8           8   
.text.PB_TimerEnd           0x8e4a            0x8           8   
.text.MchpPSF_UPDIrqHan     0x8e52            0x8           8   
.text.MchpPSF_PDTimerHa     0x8e5a            0x8           8   
.text.PWRCTRL_SetPortPo     0x8e62            0x8           8   
.text.PRL_Protocolspeci     0x8e6a            0x8           8   
.text.PORT_GroupInputEn     0x8e72            0x4           4   
.text.SAMD20_MemCmp         0x8e76            0x4           4   
.rodata.u8aMPQI2CSlvAdd     0x8e7a            0x4           4   
.text                       0x8e80            0x4           4  App's exec code 
.rodata.CSWTCH.37           0x8e84            0x3           3   
      Total ROM used  :      0x8e75       36469  55.6% of 0x10000
        --------------------------------------------------------------------------
         Total Program Memory used  :      0x8e75       36469  55.6% of 0x10000
        --------------------------------------------------------------------------


RAM Data-Memory Usage
section                    address  length [bytes]      (dec)  Description
-------                 ----------  -------------------------  -----------
.bss                    0x20000000          0x614        1556  Uninitialized data 
.bss.sercom3I2CObj      0x20000614           0x28          40   
.bss                    0x2000063c           0x1c          28  Uninitialized data 
.bss.gu32CriticalSectio 0x20000658            0x4           4   
.bss.gu8MPQAlertPortMsk 0x2000065c            0x1           1   
         Total RAM used  :       0x65d        1629  19.9% of 0x2000
        --------------------------------------------------------------------------
            Total Data Memory used  :       0x65d        1629  19.9% of 0x2000
        --------------------------------------------------------------------------


Dynamic Data-Memory Reservation
section                    address  length [bytes]      (dec)  Description
-------                 ----------  -------------------------  -----------
heap                    0x20000660          0x200         512  Reserved for heap 
stack                   0x20000878         0x1778        6008  Reserved for stack 

        --------------------------------------------------------------------------

Discarded input sections

 .text          0x00000000        0x0 c:/program files (x86)/microchip/xc32/v2.30/bin/bin/../../lib/gcc/pic32c/6.2.1/crti.o
 .data          0x00000000        0x0 c:/program files (x86)/microchip/xc32/v2.30/bin/bin/../../lib/gcc/pic32c/6.2.1/crti.o
 .bss           0x00000000        0x0 c:/program files (x86)/microchip/xc32/v2.30/bin/bin/../../lib/gcc/pic32c/6.2.1/crti.o
 .data          0x00000000        0x4 c:/program files (x86)/microchip/xc32/v2.30/bin/bin/../../lib/gcc/pic32c/6.2.1/crtbegin.o
 .text          0x00000000        0x0 build/default/production/_ext/1984496892/plib_clock.o
 .data          0x00000000        0x0 build/default/production/_ext/1984496892/plib_clock.o
 .bss           0x00000000        0x0 build/default/production/_ext/1984496892/plib_clock.o
 .text          0x00000000        0x0 build/default/production/_ext/60167341/plib_eic.o
 .data          0x00000000        0x0 build/default/production/_ext/60167341/plib_eic.o
 .bss           0x00000000        0x0 build/default/production/_ext/60167341/plib_eic.o
 .text.EIC_InterruptDisable
                0x00000000       0x10 build/default/production/_ext/60167341/plib_eic.o
 .text          0x00000000        0x0 build/default/production/_ext/1865468468/plib_nvic.o
 .data          0x00000000        0x0 build/default/production/_ext/1865468468/plib_nvic.o
 .bss           0x00000000        0x0 build/default/production/_ext/1865468468/plib_nvic.o
 .text          0x00000000        0x0 build/default/production/_ext/1593096446/plib_nvmctrl.o
 .data          0x00000000        0x0 build/default/production/_ext/1593096446/plib_nvmctrl.o
 .bss           0x00000000        0x0 build/default/production/_ext/1593096446/plib_nvmctrl.o
 .text.NVMCTRL_CacheInvalidate
                0x00000000       0x10 build/default/production/_ext/1593096446/plib_nvmctrl.o
 .text.NVMCTRL_Read
                0x00000000       0x10 build/default/production/_ext/1593096446/plib_nvmctrl.o
 .text.NVMCTRL_PageWrite
                0x00000000       0x34 build/default/production/_ext/1593096446/plib_nvmctrl.o
 .text.NVMCTRL_RowErase
                0x00000000       0x20 build/default/production/_ext/1593096446/plib_nvmctrl.o
 .text.NVMCTRL_ErrorGet
                0x00000000       0x18 build/default/production/_ext/1593096446/plib_nvmctrl.o
 .text.NVMCTRL_IsBusy
                0x00000000       0x10 build/default/production/_ext/1593096446/plib_nvmctrl.o
 .text.NVMCTRL_RegionLock
                0x00000000       0x20 build/default/production/_ext/1593096446/plib_nvmctrl.o
 .text.NVMCTRL_RegionUnlock
                0x00000000       0x20 build/default/production/_ext/1593096446/plib_nvmctrl.o
 .bss.status    0x00000000        0x4 build/default/production/_ext/1593096446/plib_nvmctrl.o
 .text          0x00000000        0x0 build/default/production/_ext/1865521619/plib_port.o
 .data          0x00000000        0x0 build/default/production/_ext/1865521619/plib_port.o
 .bss           0x00000000        0x0 build/default/production/_ext/1865521619/plib_port.o
 .text.PORT_GroupRead
                0x00000000        0x4 build/default/production/_ext/1865521619/plib_port.o
 .text.PORT_GroupLatchRead
                0x00000000        0x4 build/default/production/_ext/1865521619/plib_port.o
 .text.PORT_GroupSet
                0x00000000        0x4 build/default/production/_ext/1865521619/plib_port.o
 .text.PORT_GroupClear
                0x00000000        0x4 build/default/production/_ext/1865521619/plib_port.o
 .text.PORT_GroupToggle
                0x00000000        0x4 build/default/production/_ext/1865521619/plib_port.o
 .text.PORT_GroupOutputEnable
                0x00000000        0x4 build/default/production/_ext/1865521619/plib_port.o
 .text          0x00000000        0x0 build/default/production/_ext/1955509679/plib_sercom3_i2c.o
 .data          0x00000000        0x0 build/default/production/_ext/1955509679/plib_sercom3_i2c.o
 .bss           0x00000000        0x0 build/default/production/_ext/1955509679/plib_sercom3_i2c.o
 .text.SERCOM3_I2C_TransferSetup
                0x00000000       0xb8 build/default/production/_ext/1955509679/plib_sercom3_i2c.o
 .text.SERCOM3_I2C_CallbackRegister
                0x00000000       0x10 build/default/production/_ext/1955509679/plib_sercom3_i2c.o
 .text.SERCOM3_I2C_Read
                0x00000000       0x28 build/default/production/_ext/1955509679/plib_sercom3_i2c.o
 .text.SERCOM3_I2C_ErrorGet
                0x00000000        0xc build/default/production/_ext/1955509679/plib_sercom3_i2c.o
 .text          0x00000000        0x0 build/default/production/_ext/1955867357/plib_sercom0_spi.o
 .data          0x00000000        0x0 build/default/production/_ext/1955867357/plib_sercom0_spi.o
 .bss           0x00000000        0x0 build/default/production/_ext/1955867357/plib_sercom0_spi.o
 .text.SERCOM0_SPI_TransferSetup
                0x00000000       0x70 build/default/production/_ext/1955867357/plib_sercom0_spi.o
 .text.SERCOM0_SPI_Write
                0x00000000        0xc build/default/production/_ext/1955867357/plib_sercom0_spi.o
 .text.SERCOM0_SPI_Read
                0x00000000       0x10 build/default/production/_ext/1955867357/plib_sercom0_spi.o
 .text          0x00000000        0x0 build/default/production/_ext/504274921/plib_sercom3_usart.o
 .data          0x00000000        0x0 build/default/production/_ext/504274921/plib_sercom3_usart.o
 .bss           0x00000000        0x0 build/default/production/_ext/504274921/plib_sercom3_usart.o
 .debug_line    0x00000000        0x0 build/default/production/_ext/504274921/plib_sercom3_usart.o
 .debug_str     0x00000000        0x0 build/default/production/_ext/504274921/plib_sercom3_usart.o
 .comment       0x00000000       0x3d build/default/production/_ext/504274921/plib_sercom3_usart.o
 .ARM.attributes
                0x00000000       0x32 build/default/production/_ext/504274921/plib_sercom3_usart.o
 .text          0x00000000        0x0 build/default/production/_ext/829342655/plib_tc0.o
 .data          0x00000000        0x0 build/default/production/_ext/829342655/plib_tc0.o
 .bss           0x00000000        0x0 build/default/production/_ext/829342655/plib_tc0.o
 .text.TC0_TimerStop
                0x00000000       0x18 build/default/production/_ext/829342655/plib_tc0.o
 .text.TC0_TimerFrequencyGet
                0x00000000        0x8 build/default/production/_ext/829342655/plib_tc0.o
 .text.TC0_Timer8bitCounterGet
                0x00000000       0x1c build/default/production/_ext/829342655/plib_tc0.o
 .text.TC0_Timer8bitCounterSet
                0x00000000       0x14 build/default/production/_ext/829342655/plib_tc0.o
 .text.TC0_Timer8bitPeriodSet
                0x00000000       0x14 build/default/production/_ext/829342655/plib_tc0.o
 .text.TC0_Timer8bitPeriodGet
                0x00000000       0x1c build/default/production/_ext/829342655/plib_tc0.o
 .text          0x00000000        0x0 build/default/production/_ext/163028504/xc32_monitor.o
 .data          0x00000000        0x0 build/default/production/_ext/163028504/xc32_monitor.o
 .bss           0x00000000        0x0 build/default/production/_ext/163028504/xc32_monitor.o
 .text._mon_getc
                0x00000000        0x4 build/default/production/_ext/163028504/xc32_monitor.o
 .text._mon_putc
                0x00000000        0x2 build/default/production/_ext/163028504/xc32_monitor.o
 .debug_info    0x00000000      0x245 build/default/production/_ext/163028504/xc32_monitor.o
 .debug_abbrev  0x00000000       0x75 build/default/production/_ext/163028504/xc32_monitor.o
 .debug_loc     0x00000000       0x21 build/default/production/_ext/163028504/xc32_monitor.o
 .debug_aranges
                0x00000000       0x28 build/default/production/_ext/163028504/xc32_monitor.o
 .debug_ranges  0x00000000       0x18 build/default/production/_ext/163028504/xc32_monitor.o
 .debug_line    0x00000000       0x6b build/default/production/_ext/163028504/xc32_monitor.o
 .debug_str     0x00000000        0x0 build/default/production/_ext/163028504/xc32_monitor.o
 .comment       0x00000000       0x3d build/default/production/_ext/163028504/xc32_monitor.o
 .debug_frame   0x00000000       0x30 build/default/production/_ext/163028504/xc32_monitor.o
 .ARM.attributes
                0x00000000       0x32 build/default/production/_ext/163028504/xc32_monitor.o
 .text          0x00000000        0x0 build/default/production/_ext/1171490990/initialization.o
 .data          0x00000000        0x0 build/default/production/_ext/1171490990/initialization.o
 .bss           0x00000000        0x0 build/default/production/_ext/1171490990/initialization.o
 .text          0x00000000        0x0 build/default/production/_ext/1171490990/interrupts.o
 .data          0x00000000        0x0 build/default/production/_ext/1171490990/interrupts.o
 .bss           0x00000000        0x0 build/default/production/_ext/1171490990/interrupts.o
 .text          0x00000000        0x0 build/default/production/_ext/1171490990/exceptions.o
 .data          0x00000000        0x0 build/default/production/_ext/1171490990/exceptions.o
 .bss           0x00000000        0x0 build/default/production/_ext/1171490990/exceptions.o
 .text          0x00000000        0x0 build/default/production/_ext/1171490990/startup_xc32.o
 .data          0x00000000        0x0 build/default/production/_ext/1171490990/startup_xc32.o
 .bss           0x00000000        0x0 build/default/production/_ext/1171490990/startup_xc32.o
 .text          0x00000000        0x0 build/default/production/_ext/1171490990/libc_syscalls.o
 .data          0x00000000        0x0 build/default/production/_ext/1171490990/libc_syscalls.o
 .bss           0x00000000        0x0 build/default/production/_ext/1171490990/libc_syscalls.o
 .text._exit    0x00000000        0x2 build/default/production/_ext/1171490990/libc_syscalls.o
 .debug_info    0x00000000      0xe22 build/default/production/_ext/1171490990/libc_syscalls.o
 .debug_abbrev  0x00000000      0x1a1 build/default/production/_ext/1171490990/libc_syscalls.o
 .debug_aranges
                0x00000000       0x20 build/default/production/_ext/1171490990/libc_syscalls.o
 .debug_ranges  0x00000000       0x10 build/default/production/_ext/1171490990/libc_syscalls.o
 .debug_line    0x00000000      0x14f build/default/production/_ext/1171490990/libc_syscalls.o
 .debug_str     0x00000000        0xe build/default/production/_ext/1171490990/libc_syscalls.o
 .comment       0x00000000       0x3d build/default/production/_ext/1171490990/libc_syscalls.o
 .debug_frame   0x00000000       0x20 build/default/production/_ext/1171490990/libc_syscalls.o
 .ARM.attributes
                0x00000000       0x32 build/default/production/_ext/1171490990/libc_syscalls.o
 .text          0x00000000        0x0 build/default/production/_ext/318156199/PDSource_App.o
 .data          0x00000000        0x0 build/default/production/_ext/318156199/PDSource_App.o
 .bss           0x00000000        0x0 build/default/production/_ext/318156199/PDSource_App.o
 .text.SetMCUIdle
                0x00000000        0x2 build/default/production/_ext/318156199/PDSource_App.o
 .text          0x00000000        0x0 build/default/production/_ext/1671623073/Drivers.o
 .data          0x00000000        0x0 build/default/production/_ext/1671623073/Drivers.o
 .bss           0x00000000        0x0 build/default/production/_ext/1671623073/Drivers.o
 .text.SAMD20_I2CDCDCReadDriver
                0x00000000        0x8 build/default/production/_ext/1671623073/Drivers.o
 .text          0x00000000        0x0 build/default/production/_ext/1671623073/mpq_dc_dc_control.o
 .data          0x00000000        0x0 build/default/production/_ext/1671623073/mpq_dc_dc_control.o
 .bss           0x00000000        0x0 build/default/production/_ext/1671623073/mpq_dc_dc_control.o
 .text          0x00000000        0x0 build/default/production/_ext/1936174342/PB_Mngr.o
 .data          0x00000000        0x0 build/default/production/_ext/1936174342/PB_Mngr.o
 .bss           0x00000000        0x0 build/default/production/_ext/1936174342/PB_Mngr.o
 .text          0x00000000        0x0 build/default/production/_ext/1936174342/PB_Helper.o
 .data          0x00000000        0x0 build/default/production/_ext/1936174342/PB_Helper.o
 .bss           0x00000000        0x0 build/default/production/_ext/1936174342/PB_Helper.o
 .text.PB_PortInWaitForAsyncTimerState
                0x00000000       0x20 build/default/production/_ext/1936174342/PB_Helper.o
 .text          0x00000000        0x0 build/default/production/_ext/840851172/cfg_globals.o
 .data          0x00000000        0x0 build/default/production/_ext/840851172/cfg_globals.o
 .bss           0x00000000        0x0 build/default/production/_ext/840851172/cfg_globals.o
 .text          0x00000000        0x0 build/default/production/_ext/840851172/debug.o
 .data          0x00000000        0x0 build/default/production/_ext/840851172/debug.o
 .bss           0x00000000        0x0 build/default/production/_ext/840851172/debug.o
 .debug_info    0x00000000     0x2e10 build/default/production/_ext/840851172/debug.o
 .debug_abbrev  0x00000000      0x168 build/default/production/_ext/840851172/debug.o
 .debug_aranges
                0x00000000       0x18 build/default/production/_ext/840851172/debug.o
 .debug_line    0x00000000      0x128 build/default/production/_ext/840851172/debug.o
 .debug_str     0x00000000       0x22 build/default/production/_ext/840851172/debug.o
 .comment       0x00000000       0x3d build/default/production/_ext/840851172/debug.o
 .ARM.attributes
                0x00000000       0x32 build/default/production/_ext/840851172/debug.o
 .text          0x00000000        0x0 build/default/production/_ext/840851172/int_globals.o
 .data          0x00000000        0x0 build/default/production/_ext/840851172/int_globals.o
 .bss           0x00000000        0x0 build/default/production/_ext/840851172/int_globals.o
 .text          0x00000000        0x0 build/default/production/_ext/840851172/pd_main.o
 .data          0x00000000        0x0 build/default/production/_ext/840851172/pd_main.o
 .bss           0x00000000        0x0 build/default/production/_ext/840851172/pd_main.o
 .text          0x00000000        0x0 build/default/production/_ext/840851172/pd_timer.o
 .data          0x00000000        0x0 build/default/production/_ext/840851172/pd_timer.o
 .bss           0x00000000        0x0 build/default/production/_ext/840851172/pd_timer.o
 .text.PDTimer_WaitforTicks
                0x00000000       0x4c build/default/production/_ext/840851172/pd_timer.o
 .text          0x00000000        0x0 build/default/production/_ext/840851172/policy_engine.o
 .data          0x00000000        0x0 build/default/production/_ext/840851172/policy_engine.o
 .bss           0x00000000        0x0 build/default/production/_ext/840851172/policy_engine.o
 .text          0x00000000        0x0 build/default/production/_ext/840851172/policy_engine_fwup.o
 .data          0x00000000        0x0 build/default/production/_ext/840851172/policy_engine_fwup.o
 .bss           0x00000000        0x0 build/default/production/_ext/840851172/policy_engine_fwup.o
 .debug_info    0x00000000     0x2e1d build/default/production/_ext/840851172/policy_engine_fwup.o
 .debug_abbrev  0x00000000      0x168 build/default/production/_ext/840851172/policy_engine_fwup.o
 .debug_aranges
                0x00000000       0x18 build/default/production/_ext/840851172/policy_engine_fwup.o
 .debug_line    0x00000000      0x128 build/default/production/_ext/840851172/policy_engine_fwup.o
 .debug_str     0x00000000       0x22 build/default/production/_ext/840851172/policy_engine_fwup.o
 .comment       0x00000000       0x3d build/default/production/_ext/840851172/policy_engine_fwup.o
 .ARM.attributes
                0x00000000       0x32 build/default/production/_ext/840851172/policy_engine_fwup.o
 .text          0x00000000        0x0 build/default/production/_ext/840851172/policy_engine_snk.o
 .data          0x00000000        0x0 build/default/production/_ext/840851172/policy_engine_snk.o
 .bss           0x00000000        0x0 build/default/production/_ext/840851172/policy_engine_snk.o
 .text          0x00000000        0x0 build/default/production/_ext/840851172/policy_engine_src.o
 .data          0x00000000        0x0 build/default/production/_ext/840851172/policy_engine_src.o
 .bss           0x00000000        0x0 build/default/production/_ext/840851172/policy_engine_src.o
 .text          0x00000000        0x0 build/default/production/_ext/840851172/policy_manager.o
 .data          0x00000000        0x0 build/default/production/_ext/840851172/policy_manager.o
 .bss           0x00000000        0x0 build/default/production/_ext/840851172/policy_manager.o
 .text.DPM_Evaluate_VCONN_Swap
                0x00000000        0x4 build/default/production/_ext/840851172/policy_manager.o
 .text.DPM_SrcReadyTimerCB
                0x00000000       0x34 build/default/production/_ext/840851172/policy_manager.o
 .text          0x00000000        0x0 build/default/production/_ext/840851172/portpower_control.o
 .data          0x00000000        0x0 build/default/production/_ext/840851172/portpower_control.o
 .bss           0x00000000        0x0 build/default/production/_ext/840851172/portpower_control.o
 .text          0x00000000        0x0 build/default/production/_ext/840851172/protocol_layer.o
 .data          0x00000000        0x0 build/default/production/_ext/840851172/protocol_layer.o
 .bss           0x00000000        0x0 build/default/production/_ext/840851172/protocol_layer.o
 .text.PRL_SinkIntAMS
                0x00000000       0x30 build/default/production/_ext/840851172/protocol_layer.o
 .text.PRL_ChangeTxState
                0x00000000       0x20 build/default/production/_ext/840851172/protocol_layer.o
 .text          0x00000000        0x0 build/default/production/_ext/840851172/typeC_control.o
 .data          0x00000000        0x0 build/default/production/_ext/840851172/typeC_control.o
 .bss           0x00000000        0x0 build/default/production/_ext/840851172/typeC_control.o
 .text.TypeC_CheckRpValCollAvoidance
                0x00000000       0x2c build/default/production/_ext/840851172/typeC_control.o
 .text          0x00000000        0x0 build/default/production/_ext/840851172/upd_hw.o
 .data          0x00000000        0x0 build/default/production/_ext/840851172/upd_hw.o
 .bss           0x00000000        0x0 build/default/production/_ext/840851172/upd_hw.o
 .text          0x00000000        0x0 build/default/production/_ext/840851172/upd_interrupts.o
 .data          0x00000000        0x0 build/default/production/_ext/840851172/upd_interrupts.o
 .bss           0x00000000        0x0 build/default/production/_ext/840851172/upd_interrupts.o
 .text          0x00000000        0x0 build/default/production/_ext/1360937237/main.o
 .data          0x00000000        0x0 build/default/production/_ext/1360937237/main.o
 .bss           0x00000000        0x0 build/default/production/_ext/1360937237/main.o
 .text          0x00000000        0x0 c:/program files (x86)/microchip/xc32/v2.30/bin/bin/../../lib/gcc/pic32c/6.2.1/../../../../pic32c/lib\libpic32c.a(data_init.o)
 .data          0x00000000        0x0 c:/program files (x86)/microchip/xc32/v2.30/bin/bin/../../lib/gcc/pic32c/6.2.1/../../../../pic32c/lib\libpic32c.a(data_init.o)
 .bss           0x00000000        0x0 c:/program files (x86)/microchip/xc32/v2.30/bin/bin/../../lib/gcc/pic32c/6.2.1/../../../../pic32c/lib\libpic32c.a(data_init.o)
 .data          0x00000000        0x0 c:/program files (x86)/microchip/xc32/v2.30/bin/bin/../../lib/gcc/pic32c/6.2.1\libgcc.a(_thumb1_case_uqi.o)
 .bss           0x00000000        0x0 c:/program files (x86)/microchip/xc32/v2.30/bin/bin/../../lib/gcc/pic32c/6.2.1\libgcc.a(_thumb1_case_uqi.o)
 .data          0x00000000        0x0 c:/program files (x86)/microchip/xc32/v2.30/bin/bin/../../lib/gcc/pic32c/6.2.1\libgcc.a(_thumb1_case_shi.o)
 .bss           0x00000000        0x0 c:/program files (x86)/microchip/xc32/v2.30/bin/bin/../../lib/gcc/pic32c/6.2.1\libgcc.a(_thumb1_case_shi.o)
 .data          0x00000000        0x0 c:/program files (x86)/microchip/xc32/v2.30/bin/bin/../../lib/gcc/pic32c/6.2.1\libgcc.a(_thumb1_case_uhi.o)
 .bss           0x00000000        0x0 c:/program files (x86)/microchip/xc32/v2.30/bin/bin/../../lib/gcc/pic32c/6.2.1\libgcc.a(_thumb1_case_uhi.o)
 .data          0x00000000        0x0 c:/program files (x86)/microchip/xc32/v2.30/bin/bin/../../lib/gcc/pic32c/6.2.1\libgcc.a(_udivsi3.o)
 .bss           0x00000000        0x0 c:/program files (x86)/microchip/xc32/v2.30/bin/bin/../../lib/gcc/pic32c/6.2.1\libgcc.a(_udivsi3.o)
 .data          0x00000000        0x0 c:/program files (x86)/microchip/xc32/v2.30/bin/bin/../../lib/gcc/pic32c/6.2.1\libgcc.a(_divsi3.o)
 .bss           0x00000000        0x0 c:/program files (x86)/microchip/xc32/v2.30/bin/bin/../../lib/gcc/pic32c/6.2.1\libgcc.a(_divsi3.o)
 .data          0x00000000        0x0 c:/program files (x86)/microchip/xc32/v2.30/bin/bin/../../lib/gcc/pic32c/6.2.1\libgcc.a(_dvmd_tls.o)
 .bss           0x00000000        0x0 c:/program files (x86)/microchip/xc32/v2.30/bin/bin/../../lib/gcc/pic32c/6.2.1\libgcc.a(_dvmd_tls.o)
 .data          0x00000000        0x0 c:/program files (x86)/microchip/xc32/v2.30/bin/bin/../../lib/gcc/pic32c/6.2.1\libgcc.a(_fixunssfsi.o)
 .bss           0x00000000        0x0 c:/program files (x86)/microchip/xc32/v2.30/bin/bin/../../lib/gcc/pic32c/6.2.1\libgcc.a(_fixunssfsi.o)
 .data          0x00000000        0x0 c:/program files (x86)/microchip/xc32/v2.30/bin/bin/../../lib/gcc/pic32c/6.2.1\libgcc.a(_fixunsdfsi.o)
 .bss           0x00000000        0x0 c:/program files (x86)/microchip/xc32/v2.30/bin/bin/../../lib/gcc/pic32c/6.2.1\libgcc.a(_fixunsdfsi.o)
 .data          0x00000000        0x0 c:/program files (x86)/microchip/xc32/v2.30/bin/bin/../../lib/gcc/pic32c/6.2.1\libgcc.a(divsf3.o)
 .bss           0x00000000        0x0 c:/program files (x86)/microchip/xc32/v2.30/bin/bin/../../lib/gcc/pic32c/6.2.1\libgcc.a(divsf3.o)
 .data          0x00000000        0x0 c:/program files (x86)/microchip/xc32/v2.30/bin/bin/../../lib/gcc/pic32c/6.2.1\libgcc.a(mulsf3.o)
 .bss           0x00000000        0x0 c:/program files (x86)/microchip/xc32/v2.30/bin/bin/../../lib/gcc/pic32c/6.2.1\libgcc.a(mulsf3.o)
 .data          0x00000000        0x0 c:/program files (x86)/microchip/xc32/v2.30/bin/bin/../../lib/gcc/pic32c/6.2.1\libgcc.a(subsf3.o)
 .bss           0x00000000        0x0 c:/program files (x86)/microchip/xc32/v2.30/bin/bin/../../lib/gcc/pic32c/6.2.1\libgcc.a(subsf3.o)
 .data          0x00000000        0x0 c:/program files (x86)/microchip/xc32/v2.30/bin/bin/../../lib/gcc/pic32c/6.2.1\libgcc.a(fixsfsi.o)
 .bss           0x00000000        0x0 c:/program files (x86)/microchip/xc32/v2.30/bin/bin/../../lib/gcc/pic32c/6.2.1\libgcc.a(fixsfsi.o)
 .data          0x00000000        0x0 c:/program files (x86)/microchip/xc32/v2.30/bin/bin/../../lib/gcc/pic32c/6.2.1\libgcc.a(floatsisf.o)
 .bss           0x00000000        0x0 c:/program files (x86)/microchip/xc32/v2.30/bin/bin/../../lib/gcc/pic32c/6.2.1\libgcc.a(floatsisf.o)
 .data          0x00000000        0x0 c:/program files (x86)/microchip/xc32/v2.30/bin/bin/../../lib/gcc/pic32c/6.2.1\libgcc.a(floatunsisf.o)
 .bss           0x00000000        0x0 c:/program files (x86)/microchip/xc32/v2.30/bin/bin/../../lib/gcc/pic32c/6.2.1\libgcc.a(floatunsisf.o)
 .text          0x00000000      0x5a0 c:/program files (x86)/microchip/xc32/v2.30/bin/bin/../../lib/gcc/pic32c/6.2.1\libgcc.a(adddf3.o)
 .data          0x00000000        0x0 c:/program files (x86)/microchip/xc32/v2.30/bin/bin/../../lib/gcc/pic32c/6.2.1\libgcc.a(adddf3.o)
 .bss           0x00000000        0x0 c:/program files (x86)/microchip/xc32/v2.30/bin/bin/../../lib/gcc/pic32c/6.2.1\libgcc.a(adddf3.o)
 .debug_info    0x00000000      0x7b0 c:/program files (x86)/microchip/xc32/v2.30/bin/bin/../../lib/gcc/pic32c/6.2.1\libgcc.a(adddf3.o)
 .debug_abbrev  0x00000000      0x150 c:/program files (x86)/microchip/xc32/v2.30/bin/bin/../../lib/gcc/pic32c/6.2.1\libgcc.a(adddf3.o)
 .debug_loc     0x00000000     0x147e c:/program files (x86)/microchip/xc32/v2.30/bin/bin/../../lib/gcc/pic32c/6.2.1\libgcc.a(adddf3.o)
 .debug_aranges
                0x00000000       0x20 c:/program files (x86)/microchip/xc32/v2.30/bin/bin/../../lib/gcc/pic32c/6.2.1\libgcc.a(adddf3.o)
 .debug_ranges  0x00000000      0x1b0 c:/program files (x86)/microchip/xc32/v2.30/bin/bin/../../lib/gcc/pic32c/6.2.1\libgcc.a(adddf3.o)
 .debug_line    0x00000000      0x1c8 c:/program files (x86)/microchip/xc32/v2.30/bin/bin/../../lib/gcc/pic32c/6.2.1\libgcc.a(adddf3.o)
 .debug_str     0x00000000       0x2c c:/program files (x86)/microchip/xc32/v2.30/bin/bin/../../lib/gcc/pic32c/6.2.1\libgcc.a(adddf3.o)
 .comment       0x00000000       0x3d c:/program files (x86)/microchip/xc32/v2.30/bin/bin/../../lib/gcc/pic32c/6.2.1\libgcc.a(adddf3.o)
 .debug_frame   0x00000000       0x34 c:/program files (x86)/microchip/xc32/v2.30/bin/bin/../../lib/gcc/pic32c/6.2.1\libgcc.a(adddf3.o)
 .ARM.attributes
                0x00000000       0x2c c:/program files (x86)/microchip/xc32/v2.30/bin/bin/../../lib/gcc/pic32c/6.2.1\libgcc.a(adddf3.o)
 .data          0x00000000        0x0 c:/program files (x86)/microchip/xc32/v2.30/bin/bin/../../lib/gcc/pic32c/6.2.1\libgcc.a(divdf3.o)
 .bss           0x00000000        0x0 c:/program files (x86)/microchip/xc32/v2.30/bin/bin/../../lib/gcc/pic32c/6.2.1\libgcc.a(divdf3.o)
 .data          0x00000000        0x0 c:/program files (x86)/microchip/xc32/v2.30/bin/bin/../../lib/gcc/pic32c/6.2.1\libgcc.a(muldf3.o)
 .bss           0x00000000        0x0 c:/program files (x86)/microchip/xc32/v2.30/bin/bin/../../lib/gcc/pic32c/6.2.1\libgcc.a(muldf3.o)
 .data          0x00000000        0x0 c:/program files (x86)/microchip/xc32/v2.30/bin/bin/../../lib/gcc/pic32c/6.2.1\libgcc.a(subdf3.o)
 .bss           0x00000000        0x0 c:/program files (x86)/microchip/xc32/v2.30/bin/bin/../../lib/gcc/pic32c/6.2.1\libgcc.a(subdf3.o)
 .data          0x00000000        0x0 c:/program files (x86)/microchip/xc32/v2.30/bin/bin/../../lib/gcc/pic32c/6.2.1\libgcc.a(fixdfsi.o)
 .bss           0x00000000        0x0 c:/program files (x86)/microchip/xc32/v2.30/bin/bin/../../lib/gcc/pic32c/6.2.1\libgcc.a(fixdfsi.o)
 .data          0x00000000        0x0 c:/program files (x86)/microchip/xc32/v2.30/bin/bin/../../lib/gcc/pic32c/6.2.1\libgcc.a(floatsidf.o)
 .bss           0x00000000        0x0 c:/program files (x86)/microchip/xc32/v2.30/bin/bin/../../lib/gcc/pic32c/6.2.1\libgcc.a(floatsidf.o)
 .data          0x00000000        0x0 c:/program files (x86)/microchip/xc32/v2.30/bin/bin/../../lib/gcc/pic32c/6.2.1\libgcc.a(extendsfdf2.o)
 .bss           0x00000000        0x0 c:/program files (x86)/microchip/xc32/v2.30/bin/bin/../../lib/gcc/pic32c/6.2.1\libgcc.a(extendsfdf2.o)
 .data          0x00000000        0x0 c:/program files (x86)/microchip/xc32/v2.30/bin/bin/../../lib/gcc/pic32c/6.2.1\libgcc.a(truncdfsf2.o)
 .bss           0x00000000        0x0 c:/program files (x86)/microchip/xc32/v2.30/bin/bin/../../lib/gcc/pic32c/6.2.1\libgcc.a(truncdfsf2.o)
 .data          0x00000000        0x0 c:/program files (x86)/microchip/xc32/v2.30/bin/bin/../../lib/gcc/pic32c/6.2.1\libgcc.a(_arm_cmpdf2.o)
 .bss           0x00000000        0x0 c:/program files (x86)/microchip/xc32/v2.30/bin/bin/../../lib/gcc/pic32c/6.2.1\libgcc.a(_arm_cmpdf2.o)
 .data          0x00000000        0x0 c:/program files (x86)/microchip/xc32/v2.30/bin/bin/../../lib/gcc/pic32c/6.2.1\libgcc.a(_arm_cmpsf2.o)
 .bss           0x00000000        0x0 c:/program files (x86)/microchip/xc32/v2.30/bin/bin/../../lib/gcc/pic32c/6.2.1\libgcc.a(_arm_cmpsf2.o)
 .data          0x00000000        0x0 c:/program files (x86)/microchip/xc32/v2.30/bin/bin/../../lib/gcc/pic32c/6.2.1\libgcc.a(_clzsi2.o)
 .bss           0x00000000        0x0 c:/program files (x86)/microchip/xc32/v2.30/bin/bin/../../lib/gcc/pic32c/6.2.1\libgcc.a(_clzsi2.o)
 .data          0x00000000        0x0 c:/program files (x86)/microchip/xc32/v2.30/bin/bin/../../lib/gcc/pic32c/6.2.1\libgcc.a(eqsf2.o)
 .bss           0x00000000        0x0 c:/program files (x86)/microchip/xc32/v2.30/bin/bin/../../lib/gcc/pic32c/6.2.1\libgcc.a(eqsf2.o)
 .data          0x00000000        0x0 c:/program files (x86)/microchip/xc32/v2.30/bin/bin/../../lib/gcc/pic32c/6.2.1\libgcc.a(gesf2.o)
 .bss           0x00000000        0x0 c:/program files (x86)/microchip/xc32/v2.30/bin/bin/../../lib/gcc/pic32c/6.2.1\libgcc.a(gesf2.o)
 .data          0x00000000        0x0 c:/program files (x86)/microchip/xc32/v2.30/bin/bin/../../lib/gcc/pic32c/6.2.1\libgcc.a(lesf2.o)
 .bss           0x00000000        0x0 c:/program files (x86)/microchip/xc32/v2.30/bin/bin/../../lib/gcc/pic32c/6.2.1\libgcc.a(lesf2.o)
 .data          0x00000000        0x0 c:/program files (x86)/microchip/xc32/v2.30/bin/bin/../../lib/gcc/pic32c/6.2.1\libgcc.a(eqdf2.o)
 .bss           0x00000000        0x0 c:/program files (x86)/microchip/xc32/v2.30/bin/bin/../../lib/gcc/pic32c/6.2.1\libgcc.a(eqdf2.o)
 .data          0x00000000        0x0 c:/program files (x86)/microchip/xc32/v2.30/bin/bin/../../lib/gcc/pic32c/6.2.1\libgcc.a(gedf2.o)
 .bss           0x00000000        0x0 c:/program files (x86)/microchip/xc32/v2.30/bin/bin/../../lib/gcc/pic32c/6.2.1\libgcc.a(gedf2.o)
 .data          0x00000000        0x0 c:/program files (x86)/microchip/xc32/v2.30/bin/bin/../../lib/gcc/pic32c/6.2.1\libgcc.a(ledf2.o)
 .bss           0x00000000        0x0 c:/program files (x86)/microchip/xc32/v2.30/bin/bin/../../lib/gcc/pic32c/6.2.1\libgcc.a(ledf2.o)
 .text          0x00000000        0x0 c:/program files (x86)/microchip/xc32/v2.30/bin/bin/../../lib/gcc/pic32c/6.2.1/../../../../pic32c/lib\libc.a(lib_a-init.o)
 .data          0x00000000        0x0 c:/program files (x86)/microchip/xc32/v2.30/bin/bin/../../lib/gcc/pic32c/6.2.1/../../../../pic32c/lib\libc.a(lib_a-init.o)
 .bss           0x00000000        0x0 c:/program files (x86)/microchip/xc32/v2.30/bin/bin/../../lib/gcc/pic32c/6.2.1/../../../../pic32c/lib\libc.a(lib_a-init.o)
 .text          0x00000000        0x0 c:/program files (x86)/microchip/xc32/v2.30/bin/bin/../../lib/gcc/pic32c/6.2.1/../../../../pic32c/lib\libc.a(lib_a-memcpy-stub.o)
 .data          0x00000000        0x0 c:/program files (x86)/microchip/xc32/v2.30/bin/bin/../../lib/gcc/pic32c/6.2.1/../../../../pic32c/lib\libc.a(lib_a-memcpy-stub.o)
 .bss           0x00000000        0x0 c:/program files (x86)/microchip/xc32/v2.30/bin/bin/../../lib/gcc/pic32c/6.2.1/../../../../pic32c/lib\libc.a(lib_a-memcpy-stub.o)
 .text.memcpy   0x00000000       0x12 c:/program files (x86)/microchip/xc32/v2.30/bin/bin/../../lib/gcc/pic32c/6.2.1/../../../../pic32c/lib\libc.a(lib_a-memcpy-stub.o)
 .debug_info    0x00000000      0xd79 c:/program files (x86)/microchip/xc32/v2.30/bin/bin/../../lib/gcc/pic32c/6.2.1/../../../../pic32c/lib\libc.a(lib_a-memcpy-stub.o)
 .debug_abbrev  0x00000000      0x1c1 c:/program files (x86)/microchip/xc32/v2.30/bin/bin/../../lib/gcc/pic32c/6.2.1/../../../../pic32c/lib\libc.a(lib_a-memcpy-stub.o)
 .debug_loc     0x00000000       0xde c:/program files (x86)/microchip/xc32/v2.30/bin/bin/../../lib/gcc/pic32c/6.2.1/../../../../pic32c/lib\libc.a(lib_a-memcpy-stub.o)
 .debug_aranges
                0x00000000       0x20 c:/program files (x86)/microchip/xc32/v2.30/bin/bin/../../lib/gcc/pic32c/6.2.1/../../../../pic32c/lib\libc.a(lib_a-memcpy-stub.o)
 .debug_ranges  0x00000000       0x10 c:/program files (x86)/microchip/xc32/v2.30/bin/bin/../../lib/gcc/pic32c/6.2.1/../../../../pic32c/lib\libc.a(lib_a-memcpy-stub.o)
 .debug_line    0x00000000      0x21c c:/program files (x86)/microchip/xc32/v2.30/bin/bin/../../lib/gcc/pic32c/6.2.1/../../../../pic32c/lib\libc.a(lib_a-memcpy-stub.o)
 .debug_str     0x00000000        0xe c:/program files (x86)/microchip/xc32/v2.30/bin/bin/../../lib/gcc/pic32c/6.2.1/../../../../pic32c/lib\libc.a(lib_a-memcpy-stub.o)
 .comment       0x00000000       0x3d c:/program files (x86)/microchip/xc32/v2.30/bin/bin/../../lib/gcc/pic32c/6.2.1/../../../../pic32c/lib\libc.a(lib_a-memcpy-stub.o)
 .debug_frame   0x00000000       0x28 c:/program files (x86)/microchip/xc32/v2.30/bin/bin/../../lib/gcc/pic32c/6.2.1/../../../../pic32c/lib\libc.a(lib_a-memcpy-stub.o)
 .ARM.attributes
                0x00000000       0x2c c:/program files (x86)/microchip/xc32/v2.30/bin/bin/../../lib/gcc/pic32c/6.2.1/../../../../pic32c/lib\libc.a(lib_a-memcpy-stub.o)
 .text          0x00000000        0x0 c:/program files (x86)/microchip/xc32/v2.30/bin/bin/../../lib/gcc/pic32c/6.2.1/../../../../pic32c/lib\libc.a(lib_a-memset.o)
 .data          0x00000000        0x0 c:/program files (x86)/microchip/xc32/v2.30/bin/bin/../../lib/gcc/pic32c/6.2.1/../../../../pic32c/lib\libc.a(lib_a-memset.o)
 .bss           0x00000000        0x0 c:/program files (x86)/microchip/xc32/v2.30/bin/bin/../../lib/gcc/pic32c/6.2.1/../../../../pic32c/lib\libc.a(lib_a-memset.o)
 .text          0x00000000        0x0 c:/program files (x86)/microchip/xc32/v2.30/bin/bin/../../lib/gcc/pic32c/6.2.1/crtend.o
 .data          0x00000000        0x0 c:/program files (x86)/microchip/xc32/v2.30/bin/bin/../../lib/gcc/pic32c/6.2.1/crtend.o
 .bss           0x00000000        0x0 c:/program files (x86)/microchip/xc32/v2.30/bin/bin/../../lib/gcc/pic32c/6.2.1/crtend.o
 .eh_frame      0x00000000        0x4 c:/program files (x86)/microchip/xc32/v2.30/bin/bin/../../lib/gcc/pic32c/6.2.1/crtend.o
 .comment       0x00000000       0x3d c:/program files (x86)/microchip/xc32/v2.30/bin/bin/../../lib/gcc/pic32c/6.2.1/crtend.o
 .ARM.attributes
                0x00000000       0x2c c:/program files (x86)/microchip/xc32/v2.30/bin/bin/../../lib/gcc/pic32c/6.2.1/crtend.o
 .text          0x00000000        0x0 c:/program files (x86)/microchip/xc32/v2.30/bin/bin/../../lib/gcc/pic32c/6.2.1/crtn.o
 .data          0x00000000        0x0 c:/program files (x86)/microchip/xc32/v2.30/bin/bin/../../lib/gcc/pic32c/6.2.1/crtn.o
 .bss           0x00000000        0x0 c:/program files (x86)/microchip/xc32/v2.30/bin/bin/../../lib/gcc/pic32c/6.2.1/crtn.o

Memory Configuration

Name             Origin             Length             Attributes
rom              0x00000000         0x00010000         xrl
ram              0x20000000         0x00002000         xw !r
config_00804000  0x00804000         0x00000004
config_00804004  0x00804004         0x00000004
*default*        0x00000000         0xffffffff

Linker script and memory map

LOAD c:/program files (x86)/microchip/xc32/v2.30/bin/bin/../../lib/gcc/pic32c/6.2.1/crti.o
LOAD c:/program files (x86)/microchip/xc32/v2.30/bin/bin/../../lib/gcc/pic32c/6.2.1/crtbegin.o
LOAD build/default/production/_ext/1984496892/plib_clock.o
LOAD build/default/production/_ext/60167341/plib_eic.o
LOAD build/default/production/_ext/1865468468/plib_nvic.o
LOAD build/default/production/_ext/1593096446/plib_nvmctrl.o
LOAD build/default/production/_ext/1865521619/plib_port.o
LOAD build/default/production/_ext/1955509679/plib_sercom3_i2c.o
LOAD build/default/production/_ext/1955867357/plib_sercom0_spi.o
LOAD build/default/production/_ext/504274921/plib_sercom3_usart.o
LOAD build/default/production/_ext/829342655/plib_tc0.o
LOAD build/default/production/_ext/163028504/xc32_monitor.o
LOAD build/default/production/_ext/1171490990/initialization.o
LOAD build/default/production/_ext/1171490990/interrupts.o
LOAD build/default/production/_ext/1171490990/exceptions.o
LOAD build/default/production/_ext/1171490990/startup_xc32.o
LOAD build/default/production/_ext/1171490990/libc_syscalls.o
LOAD build/default/production/_ext/318156199/PDSource_App.o
LOAD build/default/production/_ext/1671623073/Drivers.o
LOAD build/default/production/_ext/1671623073/mpq_dc_dc_control.o
LOAD build/default/production/_ext/1936174342/PB_Mngr.o
LOAD build/default/production/_ext/1936174342/PB_Helper.o
LOAD build/default/production/_ext/840851172/cfg_globals.o
LOAD build/default/production/_ext/840851172/debug.o
LOAD build/default/production/_ext/840851172/int_globals.o
LOAD build/default/production/_ext/840851172/pd_main.o
LOAD build/default/production/_ext/840851172/pd_timer.o
LOAD build/default/production/_ext/840851172/policy_engine.o
LOAD build/default/production/_ext/840851172/policy_engine_fwup.o
LOAD build/default/production/_ext/840851172/policy_engine_snk.o
LOAD build/default/production/_ext/840851172/policy_engine_src.o
LOAD build/default/production/_ext/840851172/policy_manager.o
LOAD build/default/production/_ext/840851172/portpower_control.o
LOAD build/default/production/_ext/840851172/protocol_layer.o
LOAD build/default/production/_ext/840851172/typeC_control.o
LOAD build/default/production/_ext/840851172/upd_hw.o
LOAD build/default/production/_ext/840851172/upd_interrupts.o
LOAD build/default/production/_ext/1360937237/main.o
                0x00000001                __MPLAB_BUILD = 0x1
                0x00000200                _min_heap_size = 0x200
START GROUP
LOAD c:/program files (x86)/microchip/xc32/v2.30/bin/bin/../../lib/gcc/pic32c/6.2.1/../../../../pic32c/lib\libpic32c.a
LOAD c:/program files (x86)/microchip/xc32/v2.30/bin/bin/../../lib/gcc/pic32c/6.2.1\libgcc.a
LOAD c:/program files (x86)/microchip/xc32/v2.30/bin/bin/../../lib/gcc/pic32c/6.2.1/../../../../pic32c/lib\libc.a
LOAD c:/program files (x86)/microchip/xc32/v2.30/bin/bin/../../lib/gcc/pic32c/6.2.1/../../../../pic32c/lib\libm.a
END GROUP
LOAD c:/program files (x86)/microchip/xc32/v2.30/bin/bin/../../lib/gcc/pic32c/6.2.1/crtend.o
LOAD c:/program files (x86)/microchip/xc32/v2.30/bin/bin/../../lib/gcc/pic32c/6.2.1/crtn.o
                0x00010000                __rom_end = (ORIGIN (rom) + LENGTH (rom))
                0x20002000                __ram_end = (ORIGIN (ram) + LENGTH (ram))

.config_00804000
                0x00804000        0x4
 *(.config_00804000)
 .config_00804000
                0x00804000        0x4 build/default/production/_ext/1171490990/initialization.o

.config_00804004
                0x00804004        0x4
 *(.config_00804004)
 .config_00804004
                0x00804004        0x4 build/default/production/_ext/1171490990/initialization.o

.vectors        0x00000000       0xa4
                0x00000000                . = ALIGN (0x4)
                0x00000000                _sfixed = .
 *(.vectors .vectors.* .vectors_default .vectors_default.*)
 .vectors       0x00000000       0xa4 build/default/production/_ext/1171490990/interrupts.o
                0x00000000                exception_table
 *(.isr_vector)
 *(.reset*)
 *(.after_vectors)

.text           0x000000a4       0x20
                0x000000a4                . = ALIGN (0x4)
 *(.glue_7t)
 .glue_7t       0x000000a4        0x0 linker stubs
 *(.glue_7)
 .glue_7        0x000000a4        0x0 linker stubs
 *(.gnu.linkonce.r.*)
 *(.ARM.extab* .gnu.linkonce.armextab.*)
                0x000000a4                . = ALIGN (0x4)
 *(.init)
 .init          0x000000a4        0x4 c:/program files (x86)/microchip/xc32/v2.30/bin/bin/../../lib/gcc/pic32c/6.2.1/crti.o
                0x000000a4                _init
 .init          0x000000a8        0x8 c:/program files (x86)/microchip/xc32/v2.30/bin/bin/../../lib/gcc/pic32c/6.2.1/crtn.o
                0x000000b0                . = ALIGN (0x4)
                0x000000b0                __preinit_array_start = .
 *(.preinit_array)
                0x000000b0                __preinit_array_end = .
                0x000000b0                . = ALIGN (0x4)
                0x000000b0                __init_array_start = .
 *(SORT(.init_array.*))
 *(.init_array)
 .init_array    0x000000b0        0x4 c:/program files (x86)/microchip/xc32/v2.30/bin/bin/../../lib/gcc/pic32c/6.2.1/crtbegin.o
                0x000000b4                __init_array_end = .
                0x000000b4                . = ALIGN (0x4)
 *crtbegin.o(.ctors)
 *(EXCLUDE_FILE(*crtend.o) .ctors)
 *(SORT(.ctors.*))
 *crtend.o(.ctors)
                0x000000b4                . = ALIGN (0x4)
 *(.fini)
 .fini          0x000000b4        0x4 c:/program files (x86)/microchip/xc32/v2.30/bin/bin/../../lib/gcc/pic32c/6.2.1/crti.o
                0x000000b4                _fini
 .fini          0x000000b8        0x8 c:/program files (x86)/microchip/xc32/v2.30/bin/bin/../../lib/gcc/pic32c/6.2.1/crtn.o
                0x000000c0                . = ALIGN (0x4)
                0x000000c0                __fini_array_start = .
 *(.fini_array)
 .fini_array    0x000000c0        0x4 c:/program files (x86)/microchip/xc32/v2.30/bin/bin/../../lib/gcc/pic32c/6.2.1/crtbegin.o
 *(SORT(.fini_array.*))
                0x000000c4                __fini_array_end = .
 *crtbegin.o(.dtors)
 *(EXCLUDE_FILE(*crtend.o) .dtors)
 *(SORT(.dtors.*))
 *crtend.o(.dtors)
                0x000000c4                . = ALIGN (0x4)
                0x000000c4                _efixed = .
                [!provide]                PROVIDE (__exidx_start, .)

.ARM.exidx
 *(.ARM.exidx* .gnu.linkonce.armexidx.*)
                [!provide]                PROVIDE (__exidx_end, .)
                0x000000c4                . = ALIGN (0x4)
                0x000000c4                _etext = .

.bss            0x20000000      0x614
                0x20000000                . = ALIGN (0x4)
                0x20000000                __bss_start__ = .
                0x20000000                _sbss = .
                0x20000000                _szero = .
 *(COMMON)
 COMMON         0x20000000       0xc0 build/default/production/_ext/60167341/plib_eic.o
                0x20000000                eicCallbackObject
 COMMON         0x200000c0        0x8 build/default/production/_ext/829342655/plib_tc0.o
                0x200000c0                TC0_CallbackObject
 COMMON         0x200000c8      0x1c0 build/default/production/_ext/840851172/cfg_globals.o
                0x200000c8                gasCfgStatusData
 COMMON         0x20000288      0x38c build/default/production/_ext/840851172/int_globals.o
                0x20000288                gasPRLRecvBuff
                0x200002d0                gasPBIntPortParam
                0x200002f0                gasChunkSM
                0x20000308                gasTypeCcontrol
                0x20000328                gsPBIntSysParam
                0x20000334                gasPolicy_Engine
                0x2000035c                gasPRL
                0x20000374                gu8PBTimerID
                0x20000378                gasDPM
                0x200003a8                gasExtendedMsgBuff
                0x200005c0                gu8AttachSeq
                0x200005c4                gasPDTimers
                0x20000614                . = ALIGN (0x4)
                0x20000614                __bss_end__ = .
                0x20000614                _ebss = .
                0x20000614                _ezero = .
                0x20000614                . = ALIGN (0x4)
                0x20000614                _end = .
                0x20001fff                _ram_end_ = ((ORIGIN (ram) + LENGTH (ram)) - 0x1)
OUTPUT(dist/default/production/PSF_EVB_Source.X.production.elf elf32-littlearm)
LOAD stack
LOAD data_init

.ARM.attributes
                0x00000000       0x2a
 .ARM.attributes
                0x00000000       0x1e c:/program files (x86)/microchip/xc32/v2.30/bin/bin/../../lib/gcc/pic32c/6.2.1/crti.o
 .ARM.attributes
                0x0000001e       0x2c c:/program files (x86)/microchip/xc32/v2.30/bin/bin/../../lib/gcc/pic32c/6.2.1/crtbegin.o
 .ARM.attributes
                0x0000004a       0x32 build/default/production/_ext/1984496892/plib_clock.o
 .ARM.attributes
                0x0000007c       0x32 build/default/production/_ext/60167341/plib_eic.o
 .ARM.attributes
                0x000000ae       0x32 build/default/production/_ext/1865468468/plib_nvic.o
 .ARM.attributes
                0x000000e0       0x32 build/default/production/_ext/1593096446/plib_nvmctrl.o
 .ARM.attributes
                0x00000112       0x32 build/default/production/_ext/1865521619/plib_port.o
 .ARM.attributes
                0x00000144       0x32 build/default/production/_ext/1955509679/plib_sercom3_i2c.o
 .ARM.attributes
                0x00000176       0x32 build/default/production/_ext/1955867357/plib_sercom0_spi.o
 .ARM.attributes
                0x000001a8       0x32 build/default/production/_ext/829342655/plib_tc0.o
 .ARM.attributes
                0x000001da       0x32 build/default/production/_ext/1171490990/initialization.o
 .ARM.attributes
                0x0000020c       0x32 build/default/production/_ext/1171490990/interrupts.o
 .ARM.attributes
                0x0000023e       0x32 build/default/production/_ext/1171490990/exceptions.o
 .ARM.attributes
                0x00000270       0x32 build/default/production/_ext/1171490990/startup_xc32.o
 .ARM.attributes
                0x000002a2       0x32 build/default/production/_ext/318156199/PDSource_App.o
 .ARM.attributes
                0x000002d4       0x32 build/default/production/_ext/1671623073/Drivers.o
 .ARM.attributes
                0x00000306       0x32 build/default/production/_ext/1671623073/mpq_dc_dc_control.o
 .ARM.attributes
                0x00000338       0x32 build/default/production/_ext/1936174342/PB_Mngr.o
 .ARM.attributes
                0x0000036a       0x32 build/default/production/_ext/1936174342/PB_Helper.o
 .ARM.attributes
                0x0000039c       0x32 build/default/production/_ext/840851172/cfg_globals.o
 .ARM.attributes
                0x000003ce       0x32 build/default/production/_ext/840851172/int_globals.o
 .ARM.attributes
                0x00000400       0x32 build/default/production/_ext/840851172/pd_main.o
 .ARM.attributes
                0x00000432       0x32 build/default/production/_ext/840851172/pd_timer.o
 .ARM.attributes
                0x00000464       0x32 build/default/production/_ext/840851172/policy_engine.o
 .ARM.attributes
                0x00000496       0x32 build/default/production/_ext/840851172/policy_engine_snk.o
 .ARM.attributes
                0x000004c8       0x32 build/default/production/_ext/840851172/policy_engine_src.o
 .ARM.attributes
                0x000004fa       0x32 build/default/production/_ext/840851172/policy_manager.o
 .ARM.attributes
                0x0000052c       0x32 build/default/production/_ext/840851172/portpower_control.o
 .ARM.attributes
                0x0000055e       0x32 build/default/production/_ext/840851172/protocol_layer.o
 .ARM.attributes
                0x00000590       0x32 build/default/production/_ext/840851172/typeC_control.o
 .ARM.attributes
                0x000005c2       0x32 build/default/production/_ext/840851172/upd_hw.o
 .ARM.attributes
                0x000005f4       0x32 build/default/production/_ext/840851172/upd_interrupts.o
 .ARM.attributes
                0x00000626       0x32 build/default/production/_ext/1360937237/main.o
 .ARM.attributes
                0x00000658       0x2c c:/program files (x86)/microchip/xc32/v2.30/bin/bin/../../lib/gcc/pic32c/6.2.1/../../../../pic32c/lib\libpic32c.a(data_init.o)
 .ARM.attributes
                0x00000684       0x1e c:/program files (x86)/microchip/xc32/v2.30/bin/bin/../../lib/gcc/pic32c/6.2.1\libgcc.a(_thumb1_case_uqi.o)
 .ARM.attributes
                0x000006a2       0x1e c:/program files (x86)/microchip/xc32/v2.30/bin/bin/../../lib/gcc/pic32c/6.2.1\libgcc.a(_thumb1_case_shi.o)
 .ARM.attributes
                0x000006c0       0x1e c:/program files (x86)/microchip/xc32/v2.30/bin/bin/../../lib/gcc/pic32c/6.2.1\libgcc.a(_thumb1_case_uhi.o)
 .ARM.attributes
                0x000006de       0x1e c:/program files (x86)/microchip/xc32/v2.30/bin/bin/../../lib/gcc/pic32c/6.2.1\libgcc.a(_udivsi3.o)
 .ARM.attributes
                0x000006fc       0x1e c:/program files (x86)/microchip/xc32/v2.30/bin/bin/../../lib/gcc/pic32c/6.2.1\libgcc.a(_divsi3.o)
 .ARM.attributes
                0x0000071a       0x1e c:/program files (x86)/microchip/xc32/v2.30/bin/bin/../../lib/gcc/pic32c/6.2.1\libgcc.a(_dvmd_tls.o)
 .ARM.attributes
                0x00000738       0x2c c:/program files (x86)/microchip/xc32/v2.30/bin/bin/../../lib/gcc/pic32c/6.2.1\libgcc.a(_fixunssfsi.o)
 .ARM.attributes
                0x00000764       0x2c c:/program files (x86)/microchip/xc32/v2.30/bin/bin/../../lib/gcc/pic32c/6.2.1\libgcc.a(_fixunsdfsi.o)
 .ARM.attributes
                0x00000790       0x2c c:/program files (x86)/microchip/xc32/v2.30/bin/bin/../../lib/gcc/pic32c/6.2.1\libgcc.a(divsf3.o)
 .ARM.attributes
                0x000007bc       0x2c c:/program files (x86)/microchip/xc32/v2.30/bin/bin/../../lib/gcc/pic32c/6.2.1\libgcc.a(mulsf3.o)
 .ARM.attributes
                0x000007e8       0x2c c:/program files (x86)/microchip/xc32/v2.30/bin/bin/../../lib/gcc/pic32c/6.2.1\libgcc.a(subsf3.o)
 .ARM.attributes
                0x00000814       0x2c c:/program files (x86)/microchip/xc32/v2.30/bin/bin/../../lib/gcc/pic32c/6.2.1\libgcc.a(fixsfsi.o)
 .ARM.attributes
                0x00000840       0x2c c:/program files (x86)/microchip/xc32/v2.30/bin/bin/../../lib/gcc/pic32c/6.2.1\libgcc.a(floatsisf.o)
 .ARM.attributes
                0x0000086c       0x2c c:/program files (x86)/microchip/xc32/v2.30/bin/bin/../../lib/gcc/pic32c/6.2.1\libgcc.a(floatunsisf.o)
 .ARM.attributes
                0x00000898       0x2c c:/program files (x86)/microchip/xc32/v2.30/bin/bin/../../lib/gcc/pic32c/6.2.1\libgcc.a(divdf3.o)
 .ARM.attributes
                0x000008c4       0x2c c:/program files (x86)/microchip/xc32/v2.30/bin/bin/../../lib/gcc/pic32c/6.2.1\libgcc.a(muldf3.o)
 .ARM.attributes
                0x000008f0       0x2c c:/program files (x86)/microchip/xc32/v2.30/bin/bin/../../lib/gcc/pic32c/6.2.1\libgcc.a(subdf3.o)
 .ARM.attributes
                0x0000091c       0x2c c:/program files (x86)/microchip/xc32/v2.30/bin/bin/../../lib/gcc/pic32c/6.2.1\libgcc.a(fixdfsi.o)
 .ARM.attributes
                0x00000948       0x2c c:/program files (x86)/microchip/xc32/v2.30/bin/bin/../../lib/gcc/pic32c/6.2.1\libgcc.a(floatsidf.o)
 .ARM.attributes
                0x00000974       0x2c c:/program files (x86)/microchip/xc32/v2.30/bin/bin/../../lib/gcc/pic32c/6.2.1\libgcc.a(extendsfdf2.o)
 .ARM.attributes
                0x000009a0       0x2c c:/program files (x86)/microchip/xc32/v2.30/bin/bin/../../lib/gcc/pic32c/6.2.1\libgcc.a(truncdfsf2.o)
 .ARM.attributes
                0x000009cc       0x1e c:/program files (x86)/microchip/xc32/v2.30/bin/bin/../../lib/gcc/pic32c/6.2.1\libgcc.a(_arm_cmpdf2.o)
 .ARM.attributes
                0x000009ea       0x1e c:/program files (x86)/microchip/xc32/v2.30/bin/bin/../../lib/gcc/pic32c/6.2.1\libgcc.a(_arm_cmpsf2.o)
 .ARM.attributes
                0x00000a08       0x1e c:/program files (x86)/microchip/xc32/v2.30/bin/bin/../../lib/gcc/pic32c/6.2.1\libgcc.a(_clzsi2.o)
 .ARM.attributes
                0x00000a26       0x2c c:/program files (x86)/microchip/xc32/v2.30/bin/bin/../../lib/gcc/pic32c/6.2.1\libgcc.a(eqsf2.o)
 .ARM.attributes
                0x00000a52       0x2c c:/program files (x86)/microchip/xc32/v2.30/bin/bin/../../lib/gcc/pic32c/6.2.1\libgcc.a(gesf2.o)
 .ARM.attributes
                0x00000a7e       0x2c c:/program files (x86)/microchip/xc32/v2.30/bin/bin/../../lib/gcc/pic32c/6.2.1\libgcc.a(lesf2.o)
 .ARM.attributes
                0x00000aaa       0x2c c:/program files (x86)/microchip/xc32/v2.30/bin/bin/../../lib/gcc/pic32c/6.2.1\libgcc.a(eqdf2.o)
 .ARM.attributes
                0x00000ad6       0x2c c:/program files (x86)/microchip/xc32/v2.30/bin/bin/../../lib/gcc/pic32c/6.2.1\libgcc.a(gedf2.o)
 .ARM.attributes
                0x00000b02       0x2c c:/program files (x86)/microchip/xc32/v2.30/bin/bin/../../lib/gcc/pic32c/6.2.1\libgcc.a(ledf2.o)
 .ARM.attributes
                0x00000b2e       0x2c c:/program files (x86)/microchip/xc32/v2.30/bin/bin/../../lib/gcc/pic32c/6.2.1/../../../../pic32c/lib\libc.a(lib_a-init.o)
 .ARM.attributes
                0x00000b5a       0x2c c:/program files (x86)/microchip/xc32/v2.30/bin/bin/../../lib/gcc/pic32c/6.2.1/../../../../pic32c/lib\libc.a(lib_a-memset.o)
 .ARM.attributes
                0x00000b86       0x1e c:/program files (x86)/microchip/xc32/v2.30/bin/bin/../../lib/gcc/pic32c/6.2.1/crtn.o

.comment        0x00000000       0x3c
 .comment       0x00000000       0x3c c:/program files (x86)/microchip/xc32/v2.30/bin/bin/../../lib/gcc/pic32c/6.2.1/crtbegin.o
                                 0x3d (size before relaxing)
 .comment       0x0000003c       0x3d build/default/production/_ext/1984496892/plib_clock.o
 .comment       0x0000003c       0x3d build/default/production/_ext/60167341/plib_eic.o
 .comment       0x0000003c       0x3d build/default/production/_ext/1865468468/plib_nvic.o
 .comment       0x0000003c       0x3d build/default/production/_ext/1593096446/plib_nvmctrl.o
 .comment       0x0000003c       0x3d build/default/production/_ext/1865521619/plib_port.o
 .comment       0x0000003c       0x3d build/default/production/_ext/1955509679/plib_sercom3_i2c.o
 .comment       0x0000003c       0x3d build/default/production/_ext/1955867357/plib_sercom0_spi.o
 .comment       0x0000003c       0x3d build/default/production/_ext/829342655/plib_tc0.o
 .comment       0x0000003c       0x3d build/default/production/_ext/1171490990/initialization.o
 .comment       0x0000003c       0x3d build/default/production/_ext/1171490990/interrupts.o
 .comment       0x0000003c       0x3d build/default/production/_ext/1171490990/exceptions.o
 .comment       0x0000003c       0x3d build/default/production/_ext/1171490990/startup_xc32.o
 .comment       0x0000003c       0x3d build/default/production/_ext/318156199/PDSource_App.o
 .comment       0x0000003c       0x3d build/default/production/_ext/1671623073/Drivers.o
 .comment       0x0000003c       0x3d build/default/production/_ext/1671623073/mpq_dc_dc_control.o
 .comment       0x0000003c       0x3d build/default/production/_ext/1936174342/PB_Mngr.o
 .comment       0x0000003c       0x3d build/default/production/_ext/1936174342/PB_Helper.o
 .comment       0x0000003c       0x3d build/default/production/_ext/840851172/cfg_globals.o
 .comment       0x0000003c       0x3d build/default/production/_ext/840851172/int_globals.o
 .comment       0x0000003c       0x3d build/default/production/_ext/840851172/pd_main.o
 .comment       0x0000003c       0x3d build/default/production/_ext/840851172/pd_timer.o
 .comment       0x0000003c       0x3d build/default/production/_ext/840851172/policy_engine.o
 .comment       0x0000003c       0x3d build/default/production/_ext/840851172/policy_engine_snk.o
 .comment       0x0000003c       0x3d build/default/production/_ext/840851172/policy_engine_src.o
 .comment       0x0000003c       0x3d build/default/production/_ext/840851172/policy_manager.o
 .comment       0x0000003c       0x3d build/default/production/_ext/840851172/portpower_control.o
 .comment       0x0000003c       0x3d build/default/production/_ext/840851172/protocol_layer.o
 .comment       0x0000003c       0x3d build/default/production/_ext/840851172/typeC_control.o
 .comment       0x0000003c       0x3d build/default/production/_ext/840851172/upd_hw.o
 .comment       0x0000003c       0x3d build/default/production/_ext/840851172/upd_interrupts.o
 .comment       0x0000003c       0x3d build/default/production/_ext/1360937237/main.o
 .comment       0x0000003c       0x3d c:/program files (x86)/microchip/xc32/v2.30/bin/bin/../../lib/gcc/pic32c/6.2.1/../../../../pic32c/lib\libpic32c.a(data_init.o)
 .comment       0x0000003c       0x3d c:/program files (x86)/microchip/xc32/v2.30/bin/bin/../../lib/gcc/pic32c/6.2.1\libgcc.a(_fixunssfsi.o)
 .comment       0x0000003c       0x3d c:/program files (x86)/microchip/xc32/v2.30/bin/bin/../../lib/gcc/pic32c/6.2.1\libgcc.a(_fixunsdfsi.o)
 .comment       0x0000003c       0x3d c:/program files (x86)/microchip/xc32/v2.30/bin/bin/../../lib/gcc/pic32c/6.2.1\libgcc.a(divsf3.o)
 .comment       0x0000003c       0x3d c:/program files (x86)/microchip/xc32/v2.30/bin/bin/../../lib/gcc/pic32c/6.2.1\libgcc.a(mulsf3.o)
 .comment       0x0000003c       0x3d c:/program files (x86)/microchip/xc32/v2.30/bin/bin/../../lib/gcc/pic32c/6.2.1\libgcc.a(subsf3.o)
 .comment       0x0000003c       0x3d c:/program files (x86)/microchip/xc32/v2.30/bin/bin/../../lib/gcc/pic32c/6.2.1\libgcc.a(fixsfsi.o)
 .comment       0x0000003c       0x3d c:/program files (x86)/microchip/xc32/v2.30/bin/bin/../../lib/gcc/pic32c/6.2.1\libgcc.a(floatsisf.o)
 .comment       0x0000003c       0x3d c:/program files (x86)/microchip/xc32/v2.30/bin/bin/../../lib/gcc/pic32c/6.2.1\libgcc.a(floatunsisf.o)
 .comment       0x0000003c       0x3d c:/program files (x86)/microchip/xc32/v2.30/bin/bin/../../lib/gcc/pic32c/6.2.1\libgcc.a(divdf3.o)
 .comment       0x0000003c       0x3d c:/program files (x86)/microchip/xc32/v2.30/bin/bin/../../lib/gcc/pic32c/6.2.1\libgcc.a(muldf3.o)
 .comment       0x0000003c       0x3d c:/program files (x86)/microchip/xc32/v2.30/bin/bin/../../lib/gcc/pic32c/6.2.1\libgcc.a(subdf3.o)
 .comment       0x0000003c       0x3d c:/program files (x86)/microchip/xc32/v2.30/bin/bin/../../lib/gcc/pic32c/6.2.1\libgcc.a(fixdfsi.o)
 .comment       0x0000003c       0x3d c:/program files (x86)/microchip/xc32/v2.30/bin/bin/../../lib/gcc/pic32c/6.2.1\libgcc.a(floatsidf.o)
 .comment       0x0000003c       0x3d c:/program files (x86)/microchip/xc32/v2.30/bin/bin/../../lib/gcc/pic32c/6.2.1\libgcc.a(extendsfdf2.o)
 .comment       0x0000003c       0x3d c:/program files (x86)/microchip/xc32/v2.30/bin/bin/../../lib/gcc/pic32c/6.2.1\libgcc.a(truncdfsf2.o)
 .comment       0x0000003c       0x3d c:/program files (x86)/microchip/xc32/v2.30/bin/bin/../../lib/gcc/pic32c/6.2.1\libgcc.a(eqsf2.o)
 .comment       0x0000003c       0x3d c:/program files (x86)/microchip/xc32/v2.30/bin/bin/../../lib/gcc/pic32c/6.2.1\libgcc.a(gesf2.o)
 .comment       0x0000003c       0x3d c:/program files (x86)/microchip/xc32/v2.30/bin/bin/../../lib/gcc/pic32c/6.2.1\libgcc.a(lesf2.o)
 .comment       0x0000003c       0x3d c:/program files (x86)/microchip/xc32/v2.30/bin/bin/../../lib/gcc/pic32c/6.2.1\libgcc.a(eqdf2.o)
 .comment       0x0000003c       0x3d c:/program files (x86)/microchip/xc32/v2.30/bin/bin/../../lib/gcc/pic32c/6.2.1\libgcc.a(gedf2.o)
 .comment       0x0000003c       0x3d c:/program files (x86)/microchip/xc32/v2.30/bin/bin/../../lib/gcc/pic32c/6.2.1\libgcc.a(ledf2.o)
 .comment       0x0000003c       0x3d c:/program files (x86)/microchip/xc32/v2.30/bin/bin/../../lib/gcc/pic32c/6.2.1/../../../../pic32c/lib\libc.a(lib_a-init.o)
 .comment       0x0000003c       0x3d c:/program files (x86)/microchip/xc32/v2.30/bin/bin/../../lib/gcc/pic32c/6.2.1/../../../../pic32c/lib\libc.a(lib_a-memset.o)

.debug_info     0x00000000    0x565b6
 .debug_info    0x00000000      0x958 build/default/production/_ext/1984496892/plib_clock.o
 .debug_info    0x00000958      0x67d build/default/production/_ext/60167341/plib_eic.o
 .debug_info    0x00000fd5      0x830 build/default/production/_ext/1865468468/plib_nvic.o
 .debug_info    0x00001805     0x12bc build/default/production/_ext/1593096446/plib_nvmctrl.o
 .debug_info    0x00002ac1      0x769 build/default/production/_ext/1865521619/plib_port.o
 .debug_info    0x0000322a     0x110f build/default/production/_ext/1955509679/plib_sercom3_i2c.o
 .debug_info    0x00004339      0xe82 build/default/production/_ext/1955867357/plib_sercom0_spi.o
 .debug_info    0x000051bb      0xaf4 build/default/production/_ext/829342655/plib_tc0.o
 .debug_info    0x00005caf      0x348 build/default/production/_ext/1171490990/initialization.o
 .debug_info    0x00005ff7      0x761 build/default/production/_ext/1171490990/interrupts.o
 .debug_info    0x00006758      0x2e8 build/default/production/_ext/1171490990/exceptions.o
 .debug_info    0x00006a40      0x477 build/default/production/_ext/1171490990/startup_xc32.o
 .debug_info    0x00006eb7     0x321e build/default/production/_ext/318156199/PDSource_App.o
 .debug_info    0x0000a0d5     0x407c build/default/production/_ext/1671623073/Drivers.o
 .debug_info    0x0000e151     0x345d build/default/production/_ext/1671623073/mpq_dc_dc_control.o
 .debug_info    0x000115ae     0x3358 build/default/production/_ext/1936174342/PB_Mngr.o
 .debug_info    0x00014906     0x3bce build/default/production/_ext/1936174342/PB_Helper.o
 .debug_info    0x000184d4     0x3c4a build/default/production/_ext/840851172/cfg_globals.o
 .debug_info    0x0001c11e     0x2f97 build/default/production/_ext/840851172/int_globals.o
 .debug_info    0x0001f0b5     0x318e build/default/production/_ext/840851172/pd_main.o
 .debug_info    0x00022243     0x3049 build/default/production/_ext/840851172/pd_timer.o
 .debug_info    0x0002528c     0x3c2b build/default/production/_ext/840851172/policy_engine.o
 .debug_info    0x00028eb7     0x34fa build/default/production/_ext/840851172/policy_engine_snk.o
 .debug_info    0x0002c3b1     0x3997 build/default/production/_ext/840851172/policy_engine_src.o
 .debug_info    0x0002fd48     0x4524 build/default/production/_ext/840851172/policy_manager.o
 .debug_info    0x0003426c     0x32c0 build/default/production/_ext/840851172/portpower_control.o
 .debug_info    0x0003752c     0x4b45 build/default/production/_ext/840851172/protocol_layer.o
 .debug_info    0x0003c071     0x500a build/default/production/_ext/840851172/typeC_control.o
 .debug_info    0x0004107b     0x40d6 build/default/production/_ext/840851172/upd_hw.o
 .debug_info    0x00045151     0x2fb7 build/default/production/_ext/840851172/upd_interrupts.o
 .debug_info    0x00048108     0x39a5 build/default/production/_ext/1360937237/main.o
 .debug_info    0x0004baad      0x1f0 c:/program files (x86)/microchip/xc32/v2.30/bin/bin/../../lib/gcc/pic32c/6.2.1/../../../../pic32c/lib\libpic32c.a(data_init.o)
 .debug_info    0x0004bc9d       0xee c:/program files (x86)/microchip/xc32/v2.30/bin/bin/../../lib/gcc/pic32c/6.2.1\libgcc.a(_thumb1_case_uqi.o)
 .debug_info    0x0004bd8b       0xee c:/program files (x86)/microchip/xc32/v2.30/bin/bin/../../lib/gcc/pic32c/6.2.1\libgcc.a(_thumb1_case_shi.o)
 .debug_info    0x0004be79       0xee c:/program files (x86)/microchip/xc32/v2.30/bin/bin/../../lib/gcc/pic32c/6.2.1\libgcc.a(_thumb1_case_uhi.o)
 .debug_info    0x0004bf67       0xee c:/program files (x86)/microchip/xc32/v2.30/bin/bin/../../lib/gcc/pic32c/6.2.1\libgcc.a(_udivsi3.o)
 .debug_info    0x0004c055       0xee c:/program files (x86)/microchip/xc32/v2.30/bin/bin/../../lib/gcc/pic32c/6.2.1\libgcc.a(_divsi3.o)
 .debug_info    0x0004c143       0xee c:/program files (x86)/microchip/xc32/v2.30/bin/bin/../../lib/gcc/pic32c/6.2.1\libgcc.a(_dvmd_tls.o)
 .debug_info    0x0004c231     0x12a0 c:/program files (x86)/microchip/xc32/v2.30/bin/bin/../../lib/gcc/pic32c/6.2.1\libgcc.a(_fixunssfsi.o)
 .debug_info    0x0004d4d1     0x12a0 c:/program files (x86)/microchip/xc32/v2.30/bin/bin/../../lib/gcc/pic32c/6.2.1\libgcc.a(_fixunsdfsi.o)
 .debug_info    0x0004e771      0x58b c:/program files (x86)/microchip/xc32/v2.30/bin/bin/../../lib/gcc/pic32c/6.2.1\libgcc.a(divsf3.o)
 .debug_info    0x0004ecfc      0x5d5 c:/program files (x86)/microchip/xc32/v2.30/bin/bin/../../lib/gcc/pic32c/6.2.1\libgcc.a(mulsf3.o)
 .debug_info    0x0004f2d1      0x556 c:/program files (x86)/microchip/xc32/v2.30/bin/bin/../../lib/gcc/pic32c/6.2.1\libgcc.a(subsf3.o)
 .debug_info    0x0004f827      0x39d c:/program files (x86)/microchip/xc32/v2.30/bin/bin/../../lib/gcc/pic32c/6.2.1\libgcc.a(fixsfsi.o)
 .debug_info    0x0004fbc4      0x477 c:/program files (x86)/microchip/xc32/v2.30/bin/bin/../../lib/gcc/pic32c/6.2.1\libgcc.a(floatsisf.o)
 .debug_info    0x0005003b      0x465 c:/program files (x86)/microchip/xc32/v2.30/bin/bin/../../lib/gcc/pic32c/6.2.1\libgcc.a(floatunsisf.o)
 .debug_info    0x000504a0      0x9c6 c:/program files (x86)/microchip/xc32/v2.30/bin/bin/../../lib/gcc/pic32c/6.2.1\libgcc.a(divdf3.o)
 .debug_info    0x00050e66      0xa41 c:/program files (x86)/microchip/xc32/v2.30/bin/bin/../../lib/gcc/pic32c/6.2.1\libgcc.a(muldf3.o)
 .debug_info    0x000518a7      0x7b0 c:/program files (x86)/microchip/xc32/v2.30/bin/bin/../../lib/gcc/pic32c/6.2.1\libgcc.a(subdf3.o)
 .debug_info    0x00052057      0x3bc c:/program files (x86)/microchip/xc32/v2.30/bin/bin/../../lib/gcc/pic32c/6.2.1\libgcc.a(fixdfsi.o)
 .debug_info    0x00052413      0x4fc c:/program files (x86)/microchip/xc32/v2.30/bin/bin/../../lib/gcc/pic32c/6.2.1\libgcc.a(floatsidf.o)
 .debug_info    0x0005290f      0x47d c:/program files (x86)/microchip/xc32/v2.30/bin/bin/../../lib/gcc/pic32c/6.2.1\libgcc.a(extendsfdf2.o)
 .debug_info    0x00052d8c      0x4ee c:/program files (x86)/microchip/xc32/v2.30/bin/bin/../../lib/gcc/pic32c/6.2.1\libgcc.a(truncdfsf2.o)
 .debug_info    0x0005327a       0xee c:/program files (x86)/microchip/xc32/v2.30/bin/bin/../../lib/gcc/pic32c/6.2.1\libgcc.a(_arm_cmpdf2.o)
 .debug_info    0x00053368       0xee c:/program files (x86)/microchip/xc32/v2.30/bin/bin/../../lib/gcc/pic32c/6.2.1\libgcc.a(_arm_cmpsf2.o)
 .debug_info    0x00053456       0xee c:/program files (x86)/microchip/xc32/v2.30/bin/bin/../../lib/gcc/pic32c/6.2.1\libgcc.a(_clzsi2.o)
 .debug_info    0x00053544      0x3e0 c:/program files (x86)/microchip/xc32/v2.30/bin/bin/../../lib/gcc/pic32c/6.2.1\libgcc.a(eqsf2.o)
 .debug_info    0x00053924      0x404 c:/program files (x86)/microchip/xc32/v2.30/bin/bin/../../lib/gcc/pic32c/6.2.1\libgcc.a(gesf2.o)
 .debug_info    0x00053d28      0x408 c:/program files (x86)/microchip/xc32/v2.30/bin/bin/../../lib/gcc/pic32c/6.2.1\libgcc.a(lesf2.o)
 .debug_info    0x00054130      0x413 c:/program files (x86)/microchip/xc32/v2.30/bin/bin/../../lib/gcc/pic32c/6.2.1\libgcc.a(eqdf2.o)
 .debug_info    0x00054543      0x43f c:/program files (x86)/microchip/xc32/v2.30/bin/bin/../../lib/gcc/pic32c/6.2.1\libgcc.a(gedf2.o)
 .debug_info    0x00054982      0x437 c:/program files (x86)/microchip/xc32/v2.30/bin/bin/../../lib/gcc/pic32c/6.2.1\libgcc.a(ledf2.o)
 .debug_info    0x00054db9      0x354 c:/program files (x86)/microchip/xc32/v2.30/bin/bin/../../lib/gcc/pic32c/6.2.1/../../../../pic32c/lib\libc.a(lib_a-init.o)
 .debug_info    0x0005510d     0x14a9 c:/program files (x86)/microchip/xc32/v2.30/bin/bin/../../lib/gcc/pic32c/6.2.1/../../../../pic32c/lib\libc.a(lib_a-memset.o)

.debug_abbrev   0x00000000     0x619f
 .debug_abbrev  0x00000000      0x12a build/default/production/_ext/1984496892/plib_clock.o
 .debug_abbrev  0x0000012a      0x177 build/default/production/_ext/60167341/plib_eic.o
 .debug_abbrev  0x000002a1      0x155 build/default/production/_ext/1865468468/plib_nvic.o
 .debug_abbrev  0x000003f6      0x26a build/default/production/_ext/1593096446/plib_nvmctrl.o
 .debug_abbrev  0x00000660      0x14f build/default/production/_ext/1865521619/plib_port.o
 .debug_abbrev  0x000007af      0x28d build/default/production/_ext/1955509679/plib_sercom3_i2c.o
 .debug_abbrev  0x00000a3c      0x1d9 build/default/production/_ext/1955867357/plib_sercom0_spi.o
 .debug_abbrev  0x00000c15      0x1a9 build/default/production/_ext/829342655/plib_tc0.o
 .debug_abbrev  0x00000dbe       0x80 build/default/production/_ext/1171490990/initialization.o
 .debug_abbrev  0x00000e3e       0x94 build/default/production/_ext/1171490990/interrupts.o
 .debug_abbrev  0x00000ed2       0x39 build/default/production/_ext/1171490990/exceptions.o
 .debug_abbrev  0x00000f0b       0xe7 build/default/production/_ext/1171490990/startup_xc32.o
 .debug_abbrev  0x00000ff2      0x20e build/default/production/_ext/318156199/PDSource_App.o
 .debug_abbrev  0x00001200      0x421 build/default/production/_ext/1671623073/Drivers.o
 .debug_abbrev  0x00001621      0x288 build/default/production/_ext/1671623073/mpq_dc_dc_control.o
 .debug_abbrev  0x000018a9      0x20a build/default/production/_ext/1936174342/PB_Mngr.o
 .debug_abbrev  0x00001ab3      0x37c build/default/production/_ext/1936174342/PB_Helper.o
 .debug_abbrev  0x00001e2f      0x29b build/default/production/_ext/840851172/cfg_globals.o
 .debug_abbrev  0x000020ca      0x202 build/default/production/_ext/840851172/int_globals.o
 .debug_abbrev  0x000022cc      0x238 build/default/production/_ext/840851172/pd_main.o
 .debug_abbrev  0x00002504      0x22e build/default/production/_ext/840851172/pd_timer.o
 .debug_abbrev  0x00002732      0x3b4 build/default/production/_ext/840851172/policy_engine.o
 .debug_abbrev  0x00002ae6      0x272 build/default/production/_ext/840851172/policy_engine_snk.o
 .debug_abbrev  0x00002d58      0x254 build/default/production/_ext/840851172/policy_engine_src.o
 .debug_abbrev  0x00002fac      0x466 build/default/production/_ext/840851172/policy_manager.o
 .debug_abbrev  0x00003412      0x266 build/default/production/_ext/840851172/portpower_control.o
 .debug_abbrev  0x00003678      0x3e9 build/default/production/_ext/840851172/protocol_layer.o
 .debug_abbrev  0x00003a61      0x3bb build/default/production/_ext/840851172/typeC_control.o
 .debug_abbrev  0x00003e1c      0x345 build/default/production/_ext/840851172/upd_hw.o
 .debug_abbrev  0x00004161      0x1e3 build/default/production/_ext/840851172/upd_interrupts.o
 .debug_abbrev  0x00004344      0x25c build/default/production/_ext/1360937237/main.o
 .debug_abbrev  0x000045a0       0x2a c:/program files (x86)/microchip/xc32/v2.30/bin/bin/../../lib/gcc/pic32c/6.2.1/../../../../pic32c/lib\libpic32c.a(data_init.o)
 .debug_abbrev  0x000045ca       0x14 c:/program files (x86)/microchip/xc32/v2.30/bin/bin/../../lib/gcc/pic32c/6.2.1\libgcc.a(_thumb1_case_uqi.o)
 .debug_abbrev  0x000045de       0x14 c:/program files (x86)/microchip/xc32/v2.30/bin/bin/../../lib/gcc/pic32c/6.2.1\libgcc.a(_thumb1_case_shi.o)
 .debug_abbrev  0x000045f2       0x14 c:/program files (x86)/microchip/xc32/v2.30/bin/bin/../../lib/gcc/pic32c/6.2.1\libgcc.a(_thumb1_case_uhi.o)
 .debug_abbrev  0x00004606       0x14 c:/program files (x86)/microchip/xc32/v2.30/bin/bin/../../lib/gcc/pic32c/6.2.1\libgcc.a(_udivsi3.o)
 .debug_abbrev  0x0000461a       0x14 c:/program files (x86)/microchip/xc32/v2.30/bin/bin/../../lib/gcc/pic32c/6.2.1\libgcc.a(_divsi3.o)
 .debug_abbrev  0x0000462e       0x14 c:/program files (x86)/microchip/xc32/v2.30/bin/bin/../../lib/gcc/pic32c/6.2.1\libgcc.a(_dvmd_tls.o)
 .debug_abbrev  0x00004642      0x11b c:/program files (x86)/microchip/xc32/v2.30/bin/bin/../../lib/gcc/pic32c/6.2.1\libgcc.a(_fixunssfsi.o)
 .debug_abbrev  0x0000475d      0x11b c:/program files (x86)/microchip/xc32/v2.30/bin/bin/../../lib/gcc/pic32c/6.2.1\libgcc.a(_fixunsdfsi.o)
 .debug_abbrev  0x00004878      0x135 c:/program files (x86)/microchip/xc32/v2.30/bin/bin/../../lib/gcc/pic32c/6.2.1\libgcc.a(divsf3.o)
 .debug_abbrev  0x000049ad      0x13c c:/program files (x86)/microchip/xc32/v2.30/bin/bin/../../lib/gcc/pic32c/6.2.1\libgcc.a(mulsf3.o)
 .debug_abbrev  0x00004ae9      0x149 c:/program files (x86)/microchip/xc32/v2.30/bin/bin/../../lib/gcc/pic32c/6.2.1\libgcc.a(subsf3.o)
 .debug_abbrev  0x00004c32      0x12e c:/program files (x86)/microchip/xc32/v2.30/bin/bin/../../lib/gcc/pic32c/6.2.1\libgcc.a(fixsfsi.o)
 .debug_abbrev  0x00004d60      0x12d c:/program files (x86)/microchip/xc32/v2.30/bin/bin/../../lib/gcc/pic32c/6.2.1\libgcc.a(floatsisf.o)
 .debug_abbrev  0x00004e8d      0x12d c:/program files (x86)/microchip/xc32/v2.30/bin/bin/../../lib/gcc/pic32c/6.2.1\libgcc.a(floatunsisf.o)
 .debug_abbrev  0x00004fba      0x143 c:/program files (x86)/microchip/xc32/v2.30/bin/bin/../../lib/gcc/pic32c/6.2.1\libgcc.a(divdf3.o)
 .debug_abbrev  0x000050fd      0x14a c:/program files (x86)/microchip/xc32/v2.30/bin/bin/../../lib/gcc/pic32c/6.2.1\libgcc.a(muldf3.o)
 .debug_abbrev  0x00005247      0x150 c:/program files (x86)/microchip/xc32/v2.30/bin/bin/../../lib/gcc/pic32c/6.2.1\libgcc.a(subdf3.o)
 .debug_abbrev  0x00005397      0x12c c:/program files (x86)/microchip/xc32/v2.30/bin/bin/../../lib/gcc/pic32c/6.2.1\libgcc.a(fixdfsi.o)
 .debug_abbrev  0x000054c3      0x118 c:/program files (x86)/microchip/xc32/v2.30/bin/bin/../../lib/gcc/pic32c/6.2.1\libgcc.a(floatsidf.o)
 .debug_abbrev  0x000055db      0x114 c:/program files (x86)/microchip/xc32/v2.30/bin/bin/../../lib/gcc/pic32c/6.2.1\libgcc.a(extendsfdf2.o)
 .debug_abbrev  0x000056ef      0x10e c:/program files (x86)/microchip/xc32/v2.30/bin/bin/../../lib/gcc/pic32c/6.2.1\libgcc.a(truncdfsf2.o)
 .debug_abbrev  0x000057fd       0x14 c:/program files (x86)/microchip/xc32/v2.30/bin/bin/../../lib/gcc/pic32c/6.2.1\libgcc.a(_arm_cmpdf2.o)
 .debug_abbrev  0x00005811       0x14 c:/program files (x86)/microchip/xc32/v2.30/bin/bin/../../lib/gcc/pic32c/6.2.1\libgcc.a(_arm_cmpsf2.o)
 .debug_abbrev  0x00005825       0x14 c:/program files (x86)/microchip/xc32/v2.30/bin/bin/../../lib/gcc/pic32c/6.2.1\libgcc.a(_clzsi2.o)
 .debug_abbrev  0x00005839      0x128 c:/program files (x86)/microchip/xc32/v2.30/bin/bin/../../lib/gcc/pic32c/6.2.1\libgcc.a(eqsf2.o)
 .debug_abbrev  0x00005961      0x12a c:/program files (x86)/microchip/xc32/v2.30/bin/bin/../../lib/gcc/pic32c/6.2.1\libgcc.a(gesf2.o)
 .debug_abbrev  0x00005a8b      0x135 c:/program files (x86)/microchip/xc32/v2.30/bin/bin/../../lib/gcc/pic32c/6.2.1\libgcc.a(lesf2.o)
 .debug_abbrev  0x00005bc0      0x128 c:/program files (x86)/microchip/xc32/v2.30/bin/bin/../../lib/gcc/pic32c/6.2.1\libgcc.a(eqdf2.o)
 .debug_abbrev  0x00005ce8      0x135 c:/program files (x86)/microchip/xc32/v2.30/bin/bin/../../lib/gcc/pic32c/6.2.1\libgcc.a(gedf2.o)
 .debug_abbrev  0x00005e1d      0x12a c:/program files (x86)/microchip/xc32/v2.30/bin/bin/../../lib/gcc/pic32c/6.2.1\libgcc.a(ledf2.o)
 .debug_abbrev  0x00005f47       0xa3 c:/program files (x86)/microchip/xc32/v2.30/bin/bin/../../lib/gcc/pic32c/6.2.1/../../../../pic32c/lib\libc.a(lib_a-init.o)
 .debug_abbrev  0x00005fea      0x1b5 c:/program files (x86)/microchip/xc32/v2.30/bin/bin/../../lib/gcc/pic32c/6.2.1/../../../../pic32c/lib\libc.a(lib_a-memset.o)

.debug_loc      0x00000000     0xfa7d
 .debug_loc     0x00000000       0x5a build/default/production/_ext/1984496892/plib_clock.o
 .debug_loc     0x0000005a       0xb0 build/default/production/_ext/60167341/plib_eic.o
 .debug_loc     0x0000010a       0xf0 build/default/production/_ext/1865468468/plib_nvic.o
 .debug_loc     0x000001fa      0x19d build/default/production/_ext/1593096446/plib_nvmctrl.o
 .debug_loc     0x00000397       0xa4 build/default/production/_ext/1865521619/plib_port.o
 .debug_loc     0x0000043b      0x320 build/default/production/_ext/1955509679/plib_sercom3_i2c.o
 .debug_loc     0x0000075b      0x46d build/default/production/_ext/1955867357/plib_sercom0_spi.o
 .debug_loc     0x00000bc8       0x33 build/default/production/_ext/829342655/plib_tc0.o
 .debug_loc     0x00000bfb       0x41 build/default/production/_ext/1171490990/initialization.o
 .debug_loc     0x00000c3c       0x20 build/default/production/_ext/1171490990/startup_xc32.o
 .debug_loc     0x00000c5c       0xf8 build/default/production/_ext/318156199/PDSource_App.o
 .debug_loc     0x00000d54      0x84e build/default/production/_ext/1671623073/Drivers.o
 .debug_loc     0x000015a2      0x3ed build/default/production/_ext/1671623073/mpq_dc_dc_control.o
 .debug_loc     0x0000198f      0x3f4 build/default/production/_ext/1936174342/PB_Mngr.o
 .debug_loc     0x00001d83      0xe2b build/default/production/_ext/1936174342/PB_Helper.o
 .debug_loc     0x00002bae       0x65 build/default/production/_ext/840851172/cfg_globals.o
 .debug_loc     0x00002c13       0x4c build/default/production/_ext/840851172/int_globals.o
 .debug_loc     0x00002c5f      0x17e build/default/production/_ext/840851172/pd_main.o
 .debug_loc     0x00002ddd      0x2b9 build/default/production/_ext/840851172/pd_timer.o
 .debug_loc     0x00003096      0xd60 build/default/production/_ext/840851172/policy_engine.o
 .debug_loc     0x00003df6      0x29c build/default/production/_ext/840851172/policy_engine_snk.o
 .debug_loc     0x00004092      0x5c7 build/default/production/_ext/840851172/policy_engine_src.o
 .debug_loc     0x00004659     0x12b8 build/default/production/_ext/840851172/policy_manager.o
 .debug_loc     0x00005911      0x360 build/default/production/_ext/840851172/portpower_control.o
 .debug_loc     0x00005c71     0x16a5 build/default/production/_ext/840851172/protocol_layer.o
 .debug_loc     0x00007316     0x102d build/default/production/_ext/840851172/typeC_control.o
 .debug_loc     0x00008343      0xe64 build/default/production/_ext/840851172/upd_hw.o
 .debug_loc     0x000091a7       0x41 build/default/production/_ext/840851172/upd_interrupts.o
 .debug_loc     0x000091e8       0x20 build/default/production/_ext/1360937237/main.o
 .debug_loc     0x00009208       0x14 c:/program files (x86)/microchip/xc32/v2.30/bin/bin/../../lib/gcc/pic32c/6.2.1/../../../../pic32c/lib\libpic32c.a(data_init.o)
 .debug_loc     0x0000921c       0x5a c:/program files (x86)/microchip/xc32/v2.30/bin/bin/../../lib/gcc/pic32c/6.2.1\libgcc.a(_fixunssfsi.o)
 .debug_loc     0x00009276       0x49 c:/program files (x86)/microchip/xc32/v2.30/bin/bin/../../lib/gcc/pic32c/6.2.1\libgcc.a(_fixunsdfsi.o)
 .debug_loc     0x000092bf      0x6a6 c:/program files (x86)/microchip/xc32/v2.30/bin/bin/../../lib/gcc/pic32c/6.2.1\libgcc.a(divsf3.o)
 .debug_loc     0x00009965      0x791 c:/program files (x86)/microchip/xc32/v2.30/bin/bin/../../lib/gcc/pic32c/6.2.1\libgcc.a(mulsf3.o)
 .debug_loc     0x0000a0f6      0xb1b c:/program files (x86)/microchip/xc32/v2.30/bin/bin/../../lib/gcc/pic32c/6.2.1\libgcc.a(subsf3.o)
 .debug_loc     0x0000ac11       0xe7 c:/program files (x86)/microchip/xc32/v2.30/bin/bin/../../lib/gcc/pic32c/6.2.1\libgcc.a(fixsfsi.o)
 .debug_loc     0x0000acf8      0x180 c:/program files (x86)/microchip/xc32/v2.30/bin/bin/../../lib/gcc/pic32c/6.2.1\libgcc.a(floatsisf.o)
 .debug_loc     0x0000ae78      0x150 c:/program files (x86)/microchip/xc32/v2.30/bin/bin/../../lib/gcc/pic32c/6.2.1\libgcc.a(floatunsisf.o)
 .debug_loc     0x0000afc8     0x1513 c:/program files (x86)/microchip/xc32/v2.30/bin/bin/../../lib/gcc/pic32c/6.2.1\libgcc.a(divdf3.o)
 .debug_loc     0x0000c4db      0xfde c:/program files (x86)/microchip/xc32/v2.30/bin/bin/../../lib/gcc/pic32c/6.2.1\libgcc.a(muldf3.o)
 .debug_loc     0x0000d4b9     0x1362 c:/program files (x86)/microchip/xc32/v2.30/bin/bin/../../lib/gcc/pic32c/6.2.1\libgcc.a(subdf3.o)
 .debug_loc     0x0000e81b      0x131 c:/program files (x86)/microchip/xc32/v2.30/bin/bin/../../lib/gcc/pic32c/6.2.1\libgcc.a(fixdfsi.o)
 .debug_loc     0x0000e94c      0x1c1 c:/program files (x86)/microchip/xc32/v2.30/bin/bin/../../lib/gcc/pic32c/6.2.1\libgcc.a(floatsidf.o)
 .debug_loc     0x0000eb0d      0x260 c:/program files (x86)/microchip/xc32/v2.30/bin/bin/../../lib/gcc/pic32c/6.2.1\libgcc.a(extendsfdf2.o)
 .debug_loc     0x0000ed6d      0x2e6 c:/program files (x86)/microchip/xc32/v2.30/bin/bin/../../lib/gcc/pic32c/6.2.1\libgcc.a(truncdfsf2.o)
 .debug_loc     0x0000f053       0xb8 c:/program files (x86)/microchip/xc32/v2.30/bin/bin/../../lib/gcc/pic32c/6.2.1\libgcc.a(eqsf2.o)
 .debug_loc     0x0000f10b      0x1ca c:/program files (x86)/microchip/xc32/v2.30/bin/bin/../../lib/gcc/pic32c/6.2.1\libgcc.a(gesf2.o)
 .debug_loc     0x0000f2d5      0x163 c:/program files (x86)/microchip/xc32/v2.30/bin/bin/../../lib/gcc/pic32c/6.2.1\libgcc.a(lesf2.o)
 .debug_loc     0x0000f438      0x120 c:/program files (x86)/microchip/xc32/v2.30/bin/bin/../../lib/gcc/pic32c/6.2.1\libgcc.a(eqdf2.o)
 .debug_loc     0x0000f558      0x26c c:/program files (x86)/microchip/xc32/v2.30/bin/bin/../../lib/gcc/pic32c/6.2.1\libgcc.a(gedf2.o)
 .debug_loc     0x0000f7c4      0x1d5 c:/program files (x86)/microchip/xc32/v2.30/bin/bin/../../lib/gcc/pic32c/6.2.1\libgcc.a(ledf2.o)
 .debug_loc     0x0000f999       0x72 c:/program files (x86)/microchip/xc32/v2.30/bin/bin/../../lib/gcc/pic32c/6.2.1/../../../../pic32c/lib\libc.a(lib_a-init.o)
 .debug_loc     0x0000fa0b       0x72 c:/program files (x86)/microchip/xc32/v2.30/bin/bin/../../lib/gcc/pic32c/6.2.1/../../../../pic32c/lib\libc.a(lib_a-memset.o)

.debug_aranges  0x00000000      0xf68
 .debug_aranges
                0x00000000       0x20 build/default/production/_ext/1984496892/plib_clock.o
 .debug_aranges
                0x00000020       0x40 build/default/production/_ext/60167341/plib_eic.o
 .debug_aranges
                0x00000060       0x20 build/default/production/_ext/1865468468/plib_nvic.o
 .debug_aranges
                0x00000080       0x60 build/default/production/_ext/1593096446/plib_nvmctrl.o
 .debug_aranges
                0x000000e0       0x60 build/default/production/_ext/1865521619/plib_port.o
 .debug_aranges
                0x00000140       0x68 build/default/production/_ext/1955509679/plib_sercom3_i2c.o
 .debug_aranges
                0x000001a8       0x40 build/default/production/_ext/1955867357/plib_sercom0_spi.o
 .debug_aranges
                0x000001e8       0x68 build/default/production/_ext/829342655/plib_tc0.o
 .debug_aranges
                0x00000250       0x20 build/default/production/_ext/1171490990/initialization.o
 .debug_aranges
                0x00000270       0x20 build/default/production/_ext/1171490990/interrupts.o
 .debug_aranges
                0x00000290       0x28 build/default/production/_ext/1171490990/exceptions.o
 .debug_aranges
                0x000002b8       0x20 build/default/production/_ext/1171490990/startup_xc32.o
 .debug_aranges
                0x000002d8       0x28 build/default/production/_ext/318156199/PDSource_App.o
 .debug_aranges
                0x00000300       0xc0 build/default/production/_ext/1671623073/Drivers.o
 .debug_aranges
                0x000003c0       0x48 build/default/production/_ext/1671623073/mpq_dc_dc_control.o
 .debug_aranges
                0x00000408       0x20 build/default/production/_ext/1936174342/PB_Mngr.o
 .debug_aranges
                0x00000428       0xc8 build/default/production/_ext/1936174342/PB_Helper.o
 .debug_aranges
                0x000004f0       0x20 build/default/production/_ext/840851172/cfg_globals.o
 .debug_aranges
                0x00000510       0x20 build/default/production/_ext/840851172/int_globals.o
 .debug_aranges
                0x00000530       0x38 build/default/production/_ext/840851172/pd_main.o
 .debug_aranges
                0x00000568       0x48 build/default/production/_ext/840851172/pd_timer.o
 .debug_aranges
                0x000005b0       0xb8 build/default/production/_ext/840851172/policy_engine.o
 .debug_aranges
                0x00000668       0x20 build/default/production/_ext/840851172/policy_engine_snk.o
 .debug_aranges
                0x00000688       0x20 build/default/production/_ext/840851172/policy_engine_src.o
 .debug_aranges
                0x000006a8      0x128 build/default/production/_ext/840851172/policy_manager.o
 .debug_aranges
                0x000007d0       0x40 build/default/production/_ext/840851172/portpower_control.o
 .debug_aranges
                0x00000810      0x130 build/default/production/_ext/840851172/protocol_layer.o
 .debug_aranges
                0x00000940       0xe8 build/default/production/_ext/840851172/typeC_control.o
 .debug_aranges
                0x00000a28       0xe0 build/default/production/_ext/840851172/upd_hw.o
 .debug_aranges
                0x00000b08       0x20 build/default/production/_ext/840851172/upd_interrupts.o
 .debug_aranges
                0x00000b28       0x20 build/default/production/_ext/1360937237/main.o
 .debug_aranges
                0x00000b48       0x20 c:/program files (x86)/microchip/xc32/v2.30/bin/bin/../../lib/gcc/pic32c/6.2.1/../../../../pic32c/lib\libpic32c.a(data_init.o)
 .debug_aranges
                0x00000b68       0x20 c:/program files (x86)/microchip/xc32/v2.30/bin/bin/../../lib/gcc/pic32c/6.2.1\libgcc.a(_thumb1_case_uqi.o)
 .debug_aranges
                0x00000b88       0x20 c:/program files (x86)/microchip/xc32/v2.30/bin/bin/../../lib/gcc/pic32c/6.2.1\libgcc.a(_thumb1_case_shi.o)
 .debug_aranges
                0x00000ba8       0x20 c:/program files (x86)/microchip/xc32/v2.30/bin/bin/../../lib/gcc/pic32c/6.2.1\libgcc.a(_thumb1_case_uhi.o)
 .debug_aranges
                0x00000bc8       0x20 c:/program files (x86)/microchip/xc32/v2.30/bin/bin/../../lib/gcc/pic32c/6.2.1\libgcc.a(_udivsi3.o)
 .debug_aranges
                0x00000be8       0x20 c:/program files (x86)/microchip/xc32/v2.30/bin/bin/../../lib/gcc/pic32c/6.2.1\libgcc.a(_divsi3.o)
 .debug_aranges
                0x00000c08       0x20 c:/program files (x86)/microchip/xc32/v2.30/bin/bin/../../lib/gcc/pic32c/6.2.1\libgcc.a(_dvmd_tls.o)
 .debug_aranges
                0x00000c28       0x20 c:/program files (x86)/microchip/xc32/v2.30/bin/bin/../../lib/gcc/pic32c/6.2.1\libgcc.a(_fixunssfsi.o)
 .debug_aranges
                0x00000c48       0x20 c:/program files (x86)/microchip/xc32/v2.30/bin/bin/../../lib/gcc/pic32c/6.2.1\libgcc.a(_fixunsdfsi.o)
 .debug_aranges
                0x00000c68       0x20 c:/program files (x86)/microchip/xc32/v2.30/bin/bin/../../lib/gcc/pic32c/6.2.1\libgcc.a(divsf3.o)
 .debug_aranges
                0x00000c88       0x20 c:/program files (x86)/microchip/xc32/v2.30/bin/bin/../../lib/gcc/pic32c/6.2.1\libgcc.a(mulsf3.o)
 .debug_aranges
                0x00000ca8       0x20 c:/program files (x86)/microchip/xc32/v2.30/bin/bin/../../lib/gcc/pic32c/6.2.1\libgcc.a(subsf3.o)
 .debug_aranges
                0x00000cc8       0x20 c:/program files (x86)/microchip/xc32/v2.30/bin/bin/../../lib/gcc/pic32c/6.2.1\libgcc.a(fixsfsi.o)
 .debug_aranges
                0x00000ce8       0x20 c:/program files (x86)/microchip/xc32/v2.30/bin/bin/../../lib/gcc/pic32c/6.2.1\libgcc.a(floatsisf.o)
 .debug_aranges
                0x00000d08       0x20 c:/program files (x86)/microchip/xc32/v2.30/bin/bin/../../lib/gcc/pic32c/6.2.1\libgcc.a(floatunsisf.o)
 .debug_aranges
                0x00000d28       0x20 c:/program files (x86)/microchip/xc32/v2.30/bin/bin/../../lib/gcc/pic32c/6.2.1\libgcc.a(divdf3.o)
 .debug_aranges
                0x00000d48       0x20 c:/program files (x86)/microchip/xc32/v2.30/bin/bin/../../lib/gcc/pic32c/6.2.1\libgcc.a(muldf3.o)
 .debug_aranges
                0x00000d68       0x20 c:/program files (x86)/microchip/xc32/v2.30/bin/bin/../../lib/gcc/pic32c/6.2.1\libgcc.a(subdf3.o)
 .debug_aranges
                0x00000d88       0x20 c:/program files (x86)/microchip/xc32/v2.30/bin/bin/../../lib/gcc/pic32c/6.2.1\libgcc.a(fixdfsi.o)
 .debug_aranges
                0x00000da8       0x20 c:/program files (x86)/microchip/xc32/v2.30/bin/bin/../../lib/gcc/pic32c/6.2.1\libgcc.a(floatsidf.o)
 .debug_aranges
                0x00000dc8       0x20 c:/program files (x86)/microchip/xc32/v2.30/bin/bin/../../lib/gcc/pic32c/6.2.1\libgcc.a(extendsfdf2.o)
 .debug_aranges
                0x00000de8       0x20 c:/program files (x86)/microchip/xc32/v2.30/bin/bin/../../lib/gcc/pic32c/6.2.1\libgcc.a(truncdfsf2.o)
 .debug_aranges
                0x00000e08       0x20 c:/program files (x86)/microchip/xc32/v2.30/bin/bin/../../lib/gcc/pic32c/6.2.1\libgcc.a(_arm_cmpdf2.o)
 .debug_aranges
                0x00000e28       0x20 c:/program files (x86)/microchip/xc32/v2.30/bin/bin/../../lib/gcc/pic32c/6.2.1\libgcc.a(_arm_cmpsf2.o)
 .debug_aranges
                0x00000e48       0x20 c:/program files (x86)/microchip/xc32/v2.30/bin/bin/../../lib/gcc/pic32c/6.2.1\libgcc.a(_clzsi2.o)
 .debug_aranges
                0x00000e68       0x20 c:/program files (x86)/microchip/xc32/v2.30/bin/bin/../../lib/gcc/pic32c/6.2.1\libgcc.a(eqsf2.o)
 .debug_aranges
                0x00000e88       0x20 c:/program files (x86)/microchip/xc32/v2.30/bin/bin/../../lib/gcc/pic32c/6.2.1\libgcc.a(gesf2.o)
 .debug_aranges
                0x00000ea8       0x20 c:/program files (x86)/microchip/xc32/v2.30/bin/bin/../../lib/gcc/pic32c/6.2.1\libgcc.a(lesf2.o)
 .debug_aranges
                0x00000ec8       0x20 c:/program files (x86)/microchip/xc32/v2.30/bin/bin/../../lib/gcc/pic32c/6.2.1\libgcc.a(eqdf2.o)
 .debug_aranges
                0x00000ee8       0x20 c:/program files (x86)/microchip/xc32/v2.30/bin/bin/../../lib/gcc/pic32c/6.2.1\libgcc.a(gedf2.o)
 .debug_aranges
                0x00000f08       0x20 c:/program files (x86)/microchip/xc32/v2.30/bin/bin/../../lib/gcc/pic32c/6.2.1\libgcc.a(ledf2.o)
 .debug_aranges
                0x00000f28       0x20 c:/program files (x86)/microchip/xc32/v2.30/bin/bin/../../lib/gcc/pic32c/6.2.1/../../../../pic32c/lib\libc.a(lib_a-init.o)
 .debug_aranges
                0x00000f48       0x20 c:/program files (x86)/microchip/xc32/v2.30/bin/bin/../../lib/gcc/pic32c/6.2.1/../../../../pic32c/lib\libc.a(lib_a-memset.o)

.debug_ranges   0x00000000     0x15c0
 .debug_ranges  0x00000000       0x40 build/default/production/_ext/1984496892/plib_clock.o
 .debug_ranges  0x00000040       0x30 build/default/production/_ext/60167341/plib_eic.o
 .debug_ranges  0x00000070       0x90 build/default/production/_ext/1865468468/plib_nvic.o
 .debug_ranges  0x00000100       0x50 build/default/production/_ext/1593096446/plib_nvmctrl.o
 .debug_ranges  0x00000150       0x50 build/default/production/_ext/1865521619/plib_port.o
 .debug_ranges  0x000001a0       0x70 build/default/production/_ext/1955509679/plib_sercom3_i2c.o
 .debug_ranges  0x00000210       0x30 build/default/production/_ext/1955867357/plib_sercom0_spi.o
 .debug_ranges  0x00000240       0x58 build/default/production/_ext/829342655/plib_tc0.o
 .debug_ranges  0x00000298       0x10 build/default/production/_ext/1171490990/initialization.o
 .debug_ranges  0x000002a8       0x10 build/default/production/_ext/1171490990/interrupts.o
 .debug_ranges  0x000002b8       0x18 build/default/production/_ext/1171490990/exceptions.o
 .debug_ranges  0x000002d0       0x10 build/default/production/_ext/1171490990/startup_xc32.o
 .debug_ranges  0x000002e0       0x18 build/default/production/_ext/318156199/PDSource_App.o
 .debug_ranges  0x000002f8       0xe8 build/default/production/_ext/1671623073/Drivers.o
 .debug_ranges  0x000003e0       0x38 build/default/production/_ext/1671623073/mpq_dc_dc_control.o
 .debug_ranges  0x00000418       0x10 build/default/production/_ext/1936174342/PB_Mngr.o
 .debug_ranges  0x00000428       0xe8 build/default/production/_ext/1936174342/PB_Helper.o
 .debug_ranges  0x00000510       0x10 build/default/production/_ext/840851172/cfg_globals.o
 .debug_ranges  0x00000520       0x10 build/default/production/_ext/840851172/int_globals.o
 .debug_ranges  0x00000530       0x28 build/default/production/_ext/840851172/pd_main.o
 .debug_ranges  0x00000558       0x68 build/default/production/_ext/840851172/pd_timer.o
 .debug_ranges  0x000005c0      0x118 build/default/production/_ext/840851172/policy_engine.o
 .debug_ranges  0x000006d8       0x10 build/default/production/_ext/840851172/policy_engine_snk.o
 .debug_ranges  0x000006e8       0x10 build/default/production/_ext/840851172/policy_engine_src.o
 .debug_ranges  0x000006f8      0x168 build/default/production/_ext/840851172/policy_manager.o
 .debug_ranges  0x00000860       0x78 build/default/production/_ext/840851172/portpower_control.o
 .debug_ranges  0x000008d8      0x158 build/default/production/_ext/840851172/protocol_layer.o
 .debug_ranges  0x00000a30       0xf0 build/default/production/_ext/840851172/typeC_control.o
 .debug_ranges  0x00000b20       0xf0 build/default/production/_ext/840851172/upd_hw.o
 .debug_ranges  0x00000c10       0x30 build/default/production/_ext/840851172/upd_interrupts.o
 .debug_ranges  0x00000c40       0x10 build/default/production/_ext/1360937237/main.o
 .debug_ranges  0x00000c50       0x10 c:/program files (x86)/microchip/xc32/v2.30/bin/bin/../../lib/gcc/pic32c/6.2.1/../../../../pic32c/lib\libpic32c.a(data_init.o)
 .debug_ranges  0x00000c60       0x50 c:/program files (x86)/microchip/xc32/v2.30/bin/bin/../../lib/gcc/pic32c/6.2.1\libgcc.a(divsf3.o)
 .debug_ranges  0x00000cb0       0x50 c:/program files (x86)/microchip/xc32/v2.30/bin/bin/../../lib/gcc/pic32c/6.2.1\libgcc.a(mulsf3.o)
 .debug_ranges  0x00000d00       0xf0 c:/program files (x86)/microchip/xc32/v2.30/bin/bin/../../lib/gcc/pic32c/6.2.1\libgcc.a(subsf3.o)
 .debug_ranges  0x00000df0       0x38 c:/program files (x86)/microchip/xc32/v2.30/bin/bin/../../lib/gcc/pic32c/6.2.1\libgcc.a(floatsisf.o)
 .debug_ranges  0x00000e28       0x38 c:/program files (x86)/microchip/xc32/v2.30/bin/bin/../../lib/gcc/pic32c/6.2.1\libgcc.a(floatunsisf.o)
 .debug_ranges  0x00000e60      0x178 c:/program files (x86)/microchip/xc32/v2.30/bin/bin/../../lib/gcc/pic32c/6.2.1\libgcc.a(divdf3.o)
 .debug_ranges  0x00000fd8      0x1d0 c:/program files (x86)/microchip/xc32/v2.30/bin/bin/../../lib/gcc/pic32c/6.2.1\libgcc.a(muldf3.o)
 .debug_ranges  0x000011a8      0x1b8 c:/program files (x86)/microchip/xc32/v2.30/bin/bin/../../lib/gcc/pic32c/6.2.1\libgcc.a(subdf3.o)
 .debug_ranges  0x00001360       0x18 c:/program files (x86)/microchip/xc32/v2.30/bin/bin/../../lib/gcc/pic32c/6.2.1\libgcc.a(fixdfsi.o)
 .debug_ranges  0x00001378       0x50 c:/program files (x86)/microchip/xc32/v2.30/bin/bin/../../lib/gcc/pic32c/6.2.1\libgcc.a(floatsidf.o)
 .debug_ranges  0x000013c8       0x20 c:/program files (x86)/microchip/xc32/v2.30/bin/bin/../../lib/gcc/pic32c/6.2.1\libgcc.a(extendsfdf2.o)
 .debug_ranges  0x000013e8       0x38 c:/program files (x86)/microchip/xc32/v2.30/bin/bin/../../lib/gcc/pic32c/6.2.1\libgcc.a(truncdfsf2.o)
 .debug_ranges  0x00001420       0x30 c:/program files (x86)/microchip/xc32/v2.30/bin/bin/../../lib/gcc/pic32c/6.2.1\libgcc.a(eqsf2.o)
 .debug_ranges  0x00001450       0x58 c:/program files (x86)/microchip/xc32/v2.30/bin/bin/../../lib/gcc/pic32c/6.2.1\libgcc.a(gesf2.o)
 .debug_ranges  0x000014a8       0x30 c:/program files (x86)/microchip/xc32/v2.30/bin/bin/../../lib/gcc/pic32c/6.2.1\libgcc.a(lesf2.o)
 .debug_ranges  0x000014d8       0x50 c:/program files (x86)/microchip/xc32/v2.30/bin/bin/../../lib/gcc/pic32c/6.2.1\libgcc.a(eqdf2.o)
 .debug_ranges  0x00001528       0x30 c:/program files (x86)/microchip/xc32/v2.30/bin/bin/../../lib/gcc/pic32c/6.2.1\libgcc.a(gedf2.o)
 .debug_ranges  0x00001558       0x48 c:/program files (x86)/microchip/xc32/v2.30/bin/bin/../../lib/gcc/pic32c/6.2.1\libgcc.a(ledf2.o)
 .debug_ranges  0x000015a0       0x10 c:/program files (x86)/microchip/xc32/v2.30/bin/bin/../../lib/gcc/pic32c/6.2.1/../../../../pic32c/lib\libc.a(lib_a-init.o)
 .debug_ranges  0x000015b0       0x10 c:/program files (x86)/microchip/xc32/v2.30/bin/bin/../../lib/gcc/pic32c/6.2.1/../../../../pic32c/lib\libc.a(lib_a-memset.o)

.debug_line     0x00000000     0x82c1
 .debug_line    0x00000000      0x181 build/default/production/_ext/1984496892/plib_clock.o
 .debug_line    0x00000181      0x1cd build/default/production/_ext/60167341/plib_eic.o
 .debug_line    0x0000034e      0x1c7 build/default/production/_ext/1865468468/plib_nvic.o
 .debug_line    0x00000515      0x282 build/default/production/_ext/1593096446/plib_nvmctrl.o
 .debug_line    0x00000797      0x1f7 build/default/production/_ext/1865521619/plib_port.o
 .debug_line    0x0000098e      0x2ff build/default/production/_ext/1955509679/plib_sercom3_i2c.o
 .debug_line    0x00000c8d      0x279 build/default/production/_ext/1955867357/plib_sercom0_spi.o
 .debug_line    0x00000f06      0x209 build/default/production/_ext/829342655/plib_tc0.o
 .debug_line    0x0000110f      0x171 build/default/production/_ext/1171490990/initialization.o
 .debug_line    0x00001280      0x123 build/default/production/_ext/1171490990/interrupts.o
 .debug_line    0x000013a3       0x62 build/default/production/_ext/1171490990/exceptions.o
 .debug_line    0x00001405      0x186 build/default/production/_ext/1171490990/startup_xc32.o
 .debug_line    0x0000158b      0x1bf build/default/production/_ext/318156199/PDSource_App.o
 .debug_line    0x0000174a      0x608 build/default/production/_ext/1671623073/Drivers.o
 .debug_line    0x00001d52      0x215 build/default/production/_ext/1671623073/mpq_dc_dc_control.o
 .debug_line    0x00001f67      0x203 build/default/production/_ext/1936174342/PB_Mngr.o
 .debug_line    0x0000216a      0x45e build/default/production/_ext/1936174342/PB_Helper.o
 .debug_line    0x000025c8      0x2cf build/default/production/_ext/840851172/cfg_globals.o
 .debug_line    0x00002897      0x16b build/default/production/_ext/840851172/int_globals.o
 .debug_line    0x00002a02      0x20d build/default/production/_ext/840851172/pd_main.o
 .debug_line    0x00002c0f      0x233 build/default/production/_ext/840851172/pd_timer.o
 .debug_line    0x00002e42      0x533 build/default/production/_ext/840851172/policy_engine.o
 .debug_line    0x00003375      0x26b build/default/production/_ext/840851172/policy_engine_snk.o
 .debug_line    0x000035e0      0x390 build/default/production/_ext/840851172/policy_engine_src.o
 .debug_line    0x00003970      0x687 build/default/production/_ext/840851172/policy_manager.o
 .debug_line    0x00003ff7      0x1f5 build/default/production/_ext/840851172/portpower_control.o
 .debug_line    0x000041ec      0x755 build/default/production/_ext/840851172/protocol_layer.o
 .debug_line    0x00004941      0x801 build/default/production/_ext/840851172/typeC_control.o
 .debug_line    0x00005142      0x415 build/default/production/_ext/840851172/upd_hw.o
 .debug_line    0x00005557      0x19d build/default/production/_ext/840851172/upd_interrupts.o
 .debug_line    0x000056f4      0x271 build/default/production/_ext/1360937237/main.o
 .debug_line    0x00005965       0xe3 c:/program files (x86)/microchip/xc32/v2.30/bin/bin/../../lib/gcc/pic32c/6.2.1/../../../../pic32c/lib\libpic32c.a(data_init.o)
 .debug_line    0x00005a48       0xa4 c:/program files (x86)/microchip/xc32/v2.30/bin/bin/../../lib/gcc/pic32c/6.2.1\libgcc.a(_thumb1_case_uqi.o)
 .debug_line    0x00005aec       0xa5 c:/program files (x86)/microchip/xc32/v2.30/bin/bin/../../lib/gcc/pic32c/6.2.1\libgcc.a(_thumb1_case_shi.o)
 .debug_line    0x00005b91       0xa5 c:/program files (x86)/microchip/xc32/v2.30/bin/bin/../../lib/gcc/pic32c/6.2.1\libgcc.a(_thumb1_case_uhi.o)
 .debug_line    0x00005c36       0xb3 c:/program files (x86)/microchip/xc32/v2.30/bin/bin/../../lib/gcc/pic32c/6.2.1\libgcc.a(_udivsi3.o)
 .debug_line    0x00005ce9       0xc1 c:/program files (x86)/microchip/xc32/v2.30/bin/bin/../../lib/gcc/pic32c/6.2.1\libgcc.a(_divsi3.o)
 .debug_line    0x00005daa       0x9c c:/program files (x86)/microchip/xc32/v2.30/bin/bin/../../lib/gcc/pic32c/6.2.1\libgcc.a(_dvmd_tls.o)
 .debug_line    0x00005e46      0x28e c:/program files (x86)/microchip/xc32/v2.30/bin/bin/../../lib/gcc/pic32c/6.2.1\libgcc.a(_fixunssfsi.o)
 .debug_line    0x000060d4      0x28c c:/program files (x86)/microchip/xc32/v2.30/bin/bin/../../lib/gcc/pic32c/6.2.1\libgcc.a(_fixunsdfsi.o)
 .debug_line    0x00006360      0x161 c:/program files (x86)/microchip/xc32/v2.30/bin/bin/../../lib/gcc/pic32c/6.2.1\libgcc.a(divsf3.o)
 .debug_line    0x000064c1      0x15f c:/program files (x86)/microchip/xc32/v2.30/bin/bin/../../lib/gcc/pic32c/6.2.1\libgcc.a(mulsf3.o)
 .debug_line    0x00006620      0x19a c:/program files (x86)/microchip/xc32/v2.30/bin/bin/../../lib/gcc/pic32c/6.2.1\libgcc.a(subsf3.o)
 .debug_line    0x000067ba      0x12a c:/program files (x86)/microchip/xc32/v2.30/bin/bin/../../lib/gcc/pic32c/6.2.1\libgcc.a(fixsfsi.o)
 .debug_line    0x000068e4      0x132 c:/program files (x86)/microchip/xc32/v2.30/bin/bin/../../lib/gcc/pic32c/6.2.1\libgcc.a(floatsisf.o)
 .debug_line    0x00006a16      0x137 c:/program files (x86)/microchip/xc32/v2.30/bin/bin/../../lib/gcc/pic32c/6.2.1\libgcc.a(floatunsisf.o)
 .debug_line    0x00006b4d      0x1a4 c:/program files (x86)/microchip/xc32/v2.30/bin/bin/../../lib/gcc/pic32c/6.2.1\libgcc.a(divdf3.o)
 .debug_line    0x00006cf1      0x182 c:/program files (x86)/microchip/xc32/v2.30/bin/bin/../../lib/gcc/pic32c/6.2.1\libgcc.a(muldf3.o)
 .debug_line    0x00006e73      0x1cd c:/program files (x86)/microchip/xc32/v2.30/bin/bin/../../lib/gcc/pic32c/6.2.1\libgcc.a(subdf3.o)
 .debug_line    0x00007040      0x12f c:/program files (x86)/microchip/xc32/v2.30/bin/bin/../../lib/gcc/pic32c/6.2.1\libgcc.a(fixdfsi.o)
 .debug_line    0x0000716f      0x12a c:/program files (x86)/microchip/xc32/v2.30/bin/bin/../../lib/gcc/pic32c/6.2.1\libgcc.a(floatsidf.o)
 .debug_line    0x00007299      0x145 c:/program files (x86)/microchip/xc32/v2.30/bin/bin/../../lib/gcc/pic32c/6.2.1\libgcc.a(extendsfdf2.o)
 .debug_line    0x000073de      0x154 c:/program files (x86)/microchip/xc32/v2.30/bin/bin/../../lib/gcc/pic32c/6.2.1\libgcc.a(truncdfsf2.o)
 .debug_line    0x00007532       0xb4 c:/program files (x86)/microchip/xc32/v2.30/bin/bin/../../lib/gcc/pic32c/6.2.1\libgcc.a(_arm_cmpdf2.o)
 .debug_line    0x000075e6       0xb1 c:/program files (x86)/microchip/xc32/v2.30/bin/bin/../../lib/gcc/pic32c/6.2.1\libgcc.a(_arm_cmpsf2.o)
 .debug_line    0x00007697       0xb0 c:/program files (x86)/microchip/xc32/v2.30/bin/bin/../../lib/gcc/pic32c/6.2.1\libgcc.a(_clzsi2.o)
 .debug_line    0x00007747      0x13e c:/program files (x86)/microchip/xc32/v2.30/bin/bin/../../lib/gcc/pic32c/6.2.1\libgcc.a(eqsf2.o)
 .debug_line    0x00007885      0x149 c:/program files (x86)/microchip/xc32/v2.30/bin/bin/../../lib/gcc/pic32c/6.2.1\libgcc.a(gesf2.o)
 .debug_line    0x000079ce      0x147 c:/program files (x86)/microchip/xc32/v2.30/bin/bin/../../lib/gcc/pic32c/6.2.1\libgcc.a(lesf2.o)
 .debug_line    0x00007b15      0x14c c:/program files (x86)/microchip/xc32/v2.30/bin/bin/../../lib/gcc/pic32c/6.2.1\libgcc.a(eqdf2.o)
 .debug_line    0x00007c61      0x14c c:/program files (x86)/microchip/xc32/v2.30/bin/bin/../../lib/gcc/pic32c/6.2.1\libgcc.a(gedf2.o)
 .debug_line    0x00007dad      0x14f c:/program files (x86)/microchip/xc32/v2.30/bin/bin/../../lib/gcc/pic32c/6.2.1\libgcc.a(ledf2.o)
 .debug_line    0x00007efc      0x118 c:/program files (x86)/microchip/xc32/v2.30/bin/bin/../../lib/gcc/pic32c/6.2.1/../../../../pic32c/lib\libc.a(lib_a-init.o)
 .debug_line    0x00008014      0x2ad c:/program files (x86)/microchip/xc32/v2.30/bin/bin/../../lib/gcc/pic32c/6.2.1/../../../../pic32c/lib\libc.a(lib_a-memset.o)

.debug_str      0x00000000     0x20e2
 .debug_str     0x00000000       0x28 build/default/production/_ext/1984496892/plib_clock.o
 .debug_str     0x00000028        0x9 build/default/production/_ext/60167341/plib_eic.o
 .debug_str     0x00000031        0xa build/default/production/_ext/1865468468/plib_nvic.o
 .debug_str     0x0000003b       0x16 build/default/production/_ext/1593096446/plib_nvmctrl.o
 .debug_str     0x00000051        0xb build/default/production/_ext/1865521619/plib_port.o
 .debug_str     0x0000005c       0xc3 build/default/production/_ext/1955509679/plib_sercom3_i2c.o
 .debug_str     0x0000011f       0xd6 build/default/production/_ext/1955867357/plib_sercom0_spi.o
 .debug_str     0x000001f5       0xa7 build/default/production/_ext/829342655/plib_tc0.o
 .debug_str     0x0000029c       0x53 build/default/production/_ext/1171490990/initialization.o
 .debug_str     0x000002ef        0x0 build/default/production/_ext/1171490990/interrupts.o
 .debug_str     0x000002ef        0x0 build/default/production/_ext/1171490990/exceptions.o
 .debug_str     0x000002ef       0x6b build/default/production/_ext/1171490990/startup_xc32.o
 .debug_str     0x0000035a       0x8d build/default/production/_ext/318156199/PDSource_App.o
 .debug_str     0x000003e7      0x1e9 build/default/production/_ext/1671623073/Drivers.o
 .debug_str     0x000005d0       0xe2 build/default/production/_ext/1671623073/mpq_dc_dc_control.o
 .debug_str     0x000006b2      0x198 build/default/production/_ext/1936174342/PB_Mngr.o
 .debug_str     0x0000084a      0x10b build/default/production/_ext/1936174342/PB_Helper.o
 .debug_str     0x00000955       0x48 build/default/production/_ext/840851172/cfg_globals.o
 .debug_str     0x0000099d       0x37 build/default/production/_ext/840851172/int_globals.o
 .debug_str     0x000009d4      0x1d4 build/default/production/_ext/840851172/pd_main.o
 .debug_str     0x00000ba8       0xac build/default/production/_ext/840851172/pd_timer.o
 .debug_str     0x00000c54      0x1c9 build/default/production/_ext/840851172/policy_engine.o
 .debug_str     0x00000e1d      0x1d9 build/default/production/_ext/840851172/policy_engine_snk.o
 .debug_str     0x00000ff6      0x30f build/default/production/_ext/840851172/policy_engine_src.o
 .debug_str     0x00001305      0x29e build/default/production/_ext/840851172/policy_manager.o
 .debug_str     0x000015a3       0x67 build/default/production/_ext/840851172/portpower_control.o
 .debug_str     0x0000160a      0x25c build/default/production/_ext/840851172/protocol_layer.o
 .debug_str     0x00001866      0x2af build/default/production/_ext/840851172/typeC_control.o
 .debug_str     0x00001b15      0x14e build/default/production/_ext/840851172/upd_hw.o
 .debug_str     0x00001c63       0xb1 build/default/production/_ext/840851172/upd_interrupts.o
 .debug_str     0x00001d14       0x6d build/default/production/_ext/1360937237/main.o
 .debug_str     0x00001d81        0x0 c:/program files (x86)/microchip/xc32/v2.30/bin/bin/../../lib/gcc/pic32c/6.2.1/../../../../pic32c/lib\libpic32c.a(data_init.o)
 .debug_str     0x00001d81        0x0 c:/program files (x86)/microchip/xc32/v2.30/bin/bin/../../lib/gcc/pic32c/6.2.1\libgcc.a(_fixunssfsi.o)
 .debug_str     0x00001d81        0x0 c:/program files (x86)/microchip/xc32/v2.30/bin/bin/../../lib/gcc/pic32c/6.2.1\libgcc.a(_fixunsdfsi.o)
 .debug_str     0x00001d81       0x30 c:/program files (x86)/microchip/xc32/v2.30/bin/bin/../../lib/gcc/pic32c/6.2.1\libgcc.a(divsf3.o)
 .debug_str     0x00001db1       0x30 c:/program files (x86)/microchip/xc32/v2.30/bin/bin/../../lib/gcc/pic32c/6.2.1\libgcc.a(mulsf3.o)
 .debug_str     0x00001de1       0x2c c:/program files (x86)/microchip/xc32/v2.30/bin/bin/../../lib/gcc/pic32c/6.2.1\libgcc.a(subsf3.o)
 .debug_str     0x00001e0d       0x13 c:/program files (x86)/microchip/xc32/v2.30/bin/bin/../../lib/gcc/pic32c/6.2.1\libgcc.a(fixsfsi.o)
 .debug_str     0x00001e20        0x0 c:/program files (x86)/microchip/xc32/v2.30/bin/bin/../../lib/gcc/pic32c/6.2.1\libgcc.a(floatsisf.o)
 .debug_str     0x00001e20        0x0 c:/program files (x86)/microchip/xc32/v2.30/bin/bin/../../lib/gcc/pic32c/6.2.1\libgcc.a(floatunsisf.o)
 .debug_str     0x00001e20       0x30 c:/program files (x86)/microchip/xc32/v2.30/bin/bin/../../lib/gcc/pic32c/6.2.1\libgcc.a(divdf3.o)
 .debug_str     0x00001e50       0x56 c:/program files (x86)/microchip/xc32/v2.30/bin/bin/../../lib/gcc/pic32c/6.2.1\libgcc.a(muldf3.o)
 .debug_str     0x00001ea6       0x2c c:/program files (x86)/microchip/xc32/v2.30/bin/bin/../../lib/gcc/pic32c/6.2.1\libgcc.a(subdf3.o)
 .debug_str     0x00001ed2       0x13 c:/program files (x86)/microchip/xc32/v2.30/bin/bin/../../lib/gcc/pic32c/6.2.1\libgcc.a(fixdfsi.o)
 .debug_str     0x00001ee5        0x0 c:/program files (x86)/microchip/xc32/v2.30/bin/bin/../../lib/gcc/pic32c/6.2.1\libgcc.a(floatsidf.o)
 .debug_str     0x00001ee5        0x0 c:/program files (x86)/microchip/xc32/v2.30/bin/bin/../../lib/gcc/pic32c/6.2.1\libgcc.a(extendsfdf2.o)
 .debug_str     0x00001ee5        0x0 c:/program files (x86)/microchip/xc32/v2.30/bin/bin/../../lib/gcc/pic32c/6.2.1\libgcc.a(truncdfsf2.o)
 .debug_str     0x00001ee5       0x26 c:/program files (x86)/microchip/xc32/v2.30/bin/bin/../../lib/gcc/pic32c/6.2.1\libgcc.a(eqsf2.o)
 .debug_str     0x00001f0b       0x26 c:/program files (x86)/microchip/xc32/v2.30/bin/bin/../../lib/gcc/pic32c/6.2.1\libgcc.a(gesf2.o)
 .debug_str     0x00001f31       0x26 c:/program files (x86)/microchip/xc32/v2.30/bin/bin/../../lib/gcc/pic32c/6.2.1\libgcc.a(lesf2.o)
 .debug_str     0x00001f57       0x26 c:/program files (x86)/microchip/xc32/v2.30/bin/bin/../../lib/gcc/pic32c/6.2.1\libgcc.a(eqdf2.o)
 .debug_str     0x00001f7d       0x26 c:/program files (x86)/microchip/xc32/v2.30/bin/bin/../../lib/gcc/pic32c/6.2.1\libgcc.a(gedf2.o)
 .debug_str     0x00001fa3       0x26 c:/program files (x86)/microchip/xc32/v2.30/bin/bin/../../lib/gcc/pic32c/6.2.1\libgcc.a(ledf2.o)
 .debug_str     0x00001fc9        0x0 c:/program files (x86)/microchip/xc32/v2.30/bin/bin/../../lib/gcc/pic32c/6.2.1/../../../../pic32c/lib\libc.a(lib_a-init.o)
 .debug_str     0x00001fc9      0x119 c:/program files (x86)/microchip/xc32/v2.30/bin/bin/../../lib/gcc/pic32c/6.2.1/../../../../pic32c/lib\libc.a(lib_a-memset.o)

.debug_frame    0x00000000     0x20f4
 .debug_frame   0x00000000       0x20 build/default/production/_ext/1984496892/plib_clock.o
 .debug_frame   0x00000020       0x84 build/default/production/_ext/60167341/plib_eic.o
 .debug_frame   0x000000a4       0x20 build/default/production/_ext/1865468468/plib_nvic.o
 .debug_frame   0x000000c4       0xb0 build/default/production/_ext/1593096446/plib_nvmctrl.o
 .debug_frame   0x00000174       0xac build/default/production/_ext/1865521619/plib_port.o
 .debug_frame   0x00000220       0xfc build/default/production/_ext/1955509679/plib_sercom3_i2c.o
 .debug_frame   0x0000031c       0x8c build/default/production/_ext/1955867357/plib_sercom0_spi.o
 .debug_frame   0x000003a8       0xb8 build/default/production/_ext/829342655/plib_tc0.o
 .debug_frame   0x00000460       0x28 build/default/production/_ext/1171490990/initialization.o
 .debug_frame   0x00000488       0x20 build/default/production/_ext/1171490990/interrupts.o
 .debug_frame   0x000004a8       0x30 build/default/production/_ext/1171490990/exceptions.o
 .debug_frame   0x000004d8       0x28 build/default/production/_ext/1171490990/startup_xc32.o
 .debug_frame   0x00000500       0x38 build/default/production/_ext/318156199/PDSource_App.o
 .debug_frame   0x00000538      0x1f0 build/default/production/_ext/1671623073/Drivers.o
 .debug_frame   0x00000728       0xbc build/default/production/_ext/1671623073/mpq_dc_dc_control.o
 .debug_frame   0x000007e4       0x34 build/default/production/_ext/1936174342/PB_Mngr.o
 .debug_frame   0x00000818      0x278 build/default/production/_ext/1936174342/PB_Helper.o
 .debug_frame   0x00000a90       0x34 build/default/production/_ext/840851172/cfg_globals.o
 .debug_frame   0x00000ac4       0x28 build/default/production/_ext/840851172/int_globals.o
 .debug_frame   0x00000aec       0x74 build/default/production/_ext/840851172/pd_main.o
 .debug_frame   0x00000b60       0xb8 build/default/production/_ext/840851172/pd_timer.o
 .debug_frame   0x00000c18      0x1f4 build/default/production/_ext/840851172/policy_engine.o
 .debug_frame   0x00000e0c       0x30 build/default/production/_ext/840851172/policy_engine_snk.o
 .debug_frame   0x00000e3c       0x30 build/default/production/_ext/840851172/policy_engine_src.o
 .debug_frame   0x00000e6c      0x348 build/default/production/_ext/840851172/policy_manager.o
 .debug_frame   0x000011b4       0x94 build/default/production/_ext/840851172/portpower_control.o
 .debug_frame   0x00001248      0x3dc build/default/production/_ext/840851172/protocol_layer.o
 .debug_frame   0x00001624      0x304 build/default/production/_ext/840851172/typeC_control.o
 .debug_frame   0x00001928      0x2f0 build/default/production/_ext/840851172/upd_hw.o
 .debug_frame   0x00001c18       0x30 build/default/production/_ext/840851172/upd_interrupts.o
 .debug_frame   0x00001c48       0x28 build/default/production/_ext/1360937237/main.o
 .debug_frame   0x00001c70       0x2c c:/program files (x86)/microchip/xc32/v2.30/bin/bin/../../lib/gcc/pic32c/6.2.1/../../../../pic32c/lib\libpic32c.a(data_init.o)
 .debug_frame   0x00001c9c       0x20 c:/program files (x86)/microchip/xc32/v2.30/bin/bin/../../lib/gcc/pic32c/6.2.1\libgcc.a(_udivsi3.o)
 .debug_frame   0x00001cbc       0x20 c:/program files (x86)/microchip/xc32/v2.30/bin/bin/../../lib/gcc/pic32c/6.2.1\libgcc.a(_divsi3.o)
 .debug_frame   0x00001cdc       0x28 c:/program files (x86)/microchip/xc32/v2.30/bin/bin/../../lib/gcc/pic32c/6.2.1\libgcc.a(_fixunssfsi.o)
 .debug_frame   0x00001d04       0x2c c:/program files (x86)/microchip/xc32/v2.30/bin/bin/../../lib/gcc/pic32c/6.2.1\libgcc.a(_fixunsdfsi.o)
 .debug_frame   0x00001d30       0x30 c:/program files (x86)/microchip/xc32/v2.30/bin/bin/../../lib/gcc/pic32c/6.2.1\libgcc.a(divsf3.o)
 .debug_frame   0x00001d60       0x30 c:/program files (x86)/microchip/xc32/v2.30/bin/bin/../../lib/gcc/pic32c/6.2.1\libgcc.a(mulsf3.o)
 .debug_frame   0x00001d90       0x34 c:/program files (x86)/microchip/xc32/v2.30/bin/bin/../../lib/gcc/pic32c/6.2.1\libgcc.a(subsf3.o)
 .debug_frame   0x00001dc4       0x20 c:/program files (x86)/microchip/xc32/v2.30/bin/bin/../../lib/gcc/pic32c/6.2.1\libgcc.a(fixsfsi.o)
 .debug_frame   0x00001de4       0x2c c:/program files (x86)/microchip/xc32/v2.30/bin/bin/../../lib/gcc/pic32c/6.2.1\libgcc.a(floatsisf.o)
 .debug_frame   0x00001e10       0x2c c:/program files (x86)/microchip/xc32/v2.30/bin/bin/../../lib/gcc/pic32c/6.2.1\libgcc.a(floatunsisf.o)
 .debug_frame   0x00001e3c       0x30 c:/program files (x86)/microchip/xc32/v2.30/bin/bin/../../lib/gcc/pic32c/6.2.1\libgcc.a(divdf3.o)
 .debug_frame   0x00001e6c       0x30 c:/program files (x86)/microchip/xc32/v2.30/bin/bin/../../lib/gcc/pic32c/6.2.1\libgcc.a(muldf3.o)
 .debug_frame   0x00001e9c       0x34 c:/program files (x86)/microchip/xc32/v2.30/bin/bin/../../lib/gcc/pic32c/6.2.1\libgcc.a(subdf3.o)
 .debug_frame   0x00001ed0       0x2c c:/program files (x86)/microchip/xc32/v2.30/bin/bin/../../lib/gcc/pic32c/6.2.1\libgcc.a(fixdfsi.o)
 .debug_frame   0x00001efc       0x30 c:/program files (x86)/microchip/xc32/v2.30/bin/bin/../../lib/gcc/pic32c/6.2.1\libgcc.a(floatsidf.o)
 .debug_frame   0x00001f2c       0x2c c:/program files (x86)/microchip/xc32/v2.30/bin/bin/../../lib/gcc/pic32c/6.2.1\libgcc.a(extendsfdf2.o)
 .debug_frame   0x00001f58       0x30 c:/program files (x86)/microchip/xc32/v2.30/bin/bin/../../lib/gcc/pic32c/6.2.1\libgcc.a(truncdfsf2.o)
 .debug_frame   0x00001f88       0x2c c:/program files (x86)/microchip/xc32/v2.30/bin/bin/../../lib/gcc/pic32c/6.2.1\libgcc.a(eqsf2.o)
 .debug_frame   0x00001fb4       0x30 c:/program files (x86)/microchip/xc32/v2.30/bin/bin/../../lib/gcc/pic32c/6.2.1\libgcc.a(gesf2.o)
 .debug_frame   0x00001fe4       0x30 c:/program files (x86)/microchip/xc32/v2.30/bin/bin/../../lib/gcc/pic32c/6.2.1\libgcc.a(lesf2.o)
 .debug_frame   0x00002014       0x30 c:/program files (x86)/microchip/xc32/v2.30/bin/bin/../../lib/gcc/pic32c/6.2.1\libgcc.a(eqdf2.o)
 .debug_frame   0x00002044       0x34 c:/program files (x86)/microchip/xc32/v2.30/bin/bin/../../lib/gcc/pic32c/6.2.1\libgcc.a(gedf2.o)
 .debug_frame   0x00002078       0x30 c:/program files (x86)/microchip/xc32/v2.30/bin/bin/../../lib/gcc/pic32c/6.2.1\libgcc.a(ledf2.o)
 .debug_frame   0x000020a8       0x2c c:/program files (x86)/microchip/xc32/v2.30/bin/bin/../../lib/gcc/pic32c/6.2.1/../../../../pic32c/lib\libc.a(lib_a-init.o)
 .debug_frame   0x000020d4       0x20 c:/program files (x86)/microchip/xc32/v2.30/bin/bin/../../lib/gcc/pic32c/6.2.1/../../../../pic32c/lib\libc.a(lib_a-memset.o)

.stack          0x20000878      0x100
 .stack         0x20000878      0x100 stack

.bss.sercom3I2CObj%1
                0x20000614       0x28
 .bss.sercom3I2CObj
                0x20000614       0x28 build/default/production/_ext/1955509679/plib_sercom3_i2c.o

.bss%2          0x2000063c       0x1c
 .bss           0x2000063c       0x1c c:/program files (x86)/microchip/xc32/v2.30/bin/bin/../../lib/gcc/pic32c/6.2.1/crtbegin.o

.bss.gu32CriticalSectionCnt%3
                0x20000658        0x4
 .bss.gu32CriticalSectionCnt
                0x20000658        0x4 build/default/production/_ext/1671623073/Drivers.o

.bss.gu8MPQAlertPortMsk%4
                0x2000065c        0x1
 .bss.gu8MPQAlertPortMsk
                0x2000065c        0x1 build/default/production/_ext/1671623073/mpq_dc_dc_control.o
                0x2000065c                gu8MPQAlertPortMsk

.eh_frame%z1    0x00000000        0x0
 .eh_frame      0x00000000        0x0 c:/program files (x86)/microchip/xc32/v2.30/bin/bin/../../lib/gcc/pic32c/6.2.1/crtbegin.o

.text.PE_SrcRunStateMachine%5
                0x000000c4      0x944
 .text.PE_SrcRunStateMachine
                0x000000c4      0x944 build/default/production/_ext/840851172/policy_engine_src.o
                0x000000c4                PE_SrcRunStateMachine

.text.TypeC_RunStateMachine%6
                0x00000a08      0x658
 .text.TypeC_RunStateMachine
                0x00000a08      0x658 build/default/production/_ext/840851172/typeC_control.o
                0x00000a08                TypeC_RunStateMachine

.text%7         0x00001060      0xf18
 .text          0x00001060      0x5b0 c:/program files (x86)/microchip/xc32/v2.30/bin/bin/../../lib/gcc/pic32c/6.2.1\libgcc.a(subdf3.o)
                0x00001060                __aeabi_dsub
 .text          0x00001610      0x544 c:/program files (x86)/microchip/xc32/v2.30/bin/bin/../../lib/gcc/pic32c/6.2.1\libgcc.a(divdf3.o)
                0x00001610                __aeabi_ddiv
 .text          0x00001b54      0x424 c:/program files (x86)/microchip/xc32/v2.30/bin/bin/../../lib/gcc/pic32c/6.2.1\libgcc.a(muldf3.o)
                0x00001b54                __aeabi_dmul

.text.PE_SnkRunStateMachine%10
                0x00001f78      0x3a8
 .text.PE_SnkRunStateMachine
                0x00001f78      0x3a8 build/default/production/_ext/840851172/policy_engine_snk.o
                0x00001f78                PE_SnkRunStateMachine

.text.PB_HandlePPMEvents%11
                0x00002320      0x32c
 .text.PB_HandlePPMEvents
                0x00002320      0x32c build/default/production/_ext/1936174342/PB_Mngr.o
                0x00002320                PB_HandlePPMEvents

.text.TypeC_HandleISR%12
                0x0000264c      0x31c
 .text.TypeC_HandleISR
                0x0000264c      0x31c build/default/production/_ext/840851172/typeC_control.o
                0x0000264c                TypeC_HandleISR

.text.PE_RunCommonStateMachine%13
                0x00002968      0x310
 .text.PE_RunCommonStateMachine
                0x00002968      0x310 build/default/production/_ext/840851172/policy_engine.o
                0x00002968                PE_RunCommonStateMachine

.text%14        0x00002c78      0x2f4
 .text          0x00002c78      0x2f4 c:/program files (x86)/microchip/xc32/v2.30/bin/bin/../../lib/gcc/pic32c/6.2.1\libgcc.a(subsf3.o)
                0x00002c78                __aeabi_fsub

.text.TypeC_ConfigureVBUSThr%15
                0x00002f6c      0x2d8
 .text.TypeC_ConfigureVBUSThr
                0x00002f6c      0x2d8 build/default/production/_ext/840851172/typeC_control.o
                0x00002f6c                TypeC_ConfigureVBUSThr

.text.PE_ReceiveMsgHandler%16
                0x00003244      0x294
 .text.PE_ReceiveMsgHandler
                0x00003244      0x294 build/default/production/_ext/840851172/policy_engine.o
                0x00003244                PE_ReceiveMsgHandler

.text.TypeC_InitPort%17
                0x000034d8      0x26c
 .text.TypeC_InitPort
                0x000034d8      0x26c build/default/production/_ext/840851172/typeC_control.o
                0x000034d8                TypeC_InitPort

.text.PRL_ProcessRecvdMsg%18
                0x00003744      0x24c
 .text.PRL_ProcessRecvdMsg
                0x00003744      0x24c build/default/production/_ext/840851172/protocol_layer.o
                0x00003744                PRL_ProcessRecvdMsg

.text.DPM_PowerFaultHandler%19
                0x00003990      0x240
 .text.DPM_PowerFaultHandler
                0x00003990      0x240 build/default/production/_ext/840851172/policy_manager.o
                0x00003990                DPM_PowerFaultHandler

.text.PRL_TransmitMsg%20
                0x00003bd0      0x1e4
 .text.PRL_TransmitMsg
                0x00003bd0      0x1e4 build/default/production/_ext/840851172/protocol_layer.o
                0x00003bd0                PRL_TransmitMsg

.text%21        0x00003db4      0x1d8
 .text          0x00003db4      0x1d8 c:/program files (x86)/microchip/xc32/v2.30/bin/bin/../../lib/gcc/pic32c/6.2.1\libgcc.a(mulsf3.o)
                0x00003db4                __aeabi_fmul

.text.TypeC_EnabDisVCONN%22
                0x00003f8c      0x1d4
 .text.TypeC_EnabDisVCONN
                0x00003f8c      0x1d4 build/default/production/_ext/840851172/typeC_control.o
                0x00003f8c                TypeC_EnabDisVCONN

.text.PRL_Init%23
                0x00004160      0x1c0
 .text.PRL_Init
                0x00004160      0x1c0 build/default/production/_ext/840851172/protocol_layer.o
                0x00004160                PRL_Init

.text%24        0x00004320      0x1c0
 .text          0x00004320      0x1c0 c:/program files (x86)/microchip/xc32/v2.30/bin/bin/../../lib/gcc/pic32c/6.2.1\libgcc.a(divsf3.o)
                0x00004320                __aeabi_fdiv

.text.DPM_Evaluate_Received_Src_caps%25
                0x000044e0      0x180
 .text.DPM_Evaluate_Received_Src_caps
                0x000044e0      0x180 build/default/production/_ext/840851172/policy_manager.o
                0x000044e0                DPM_Evaluate_Received_Src_caps

.text.PRL_RunChunkStateMachine%26
                0x00004660      0x168
 .text.PRL_RunChunkStateMachine
                0x00004660      0x168 build/default/production/_ext/840851172/protocol_layer.o
                0x00004660                PRL_RunChunkStateMachine

.text.PRL_HandleISR%27
                0x000047c8      0x15c
 .text.PRL_HandleISR
                0x000047c8      0x15c build/default/production/_ext/840851172/protocol_layer.o
                0x000047c8                PRL_HandleISR

.text.CFG_LoadDefaults%28
                0x00004924      0x150
 .text.CFG_LoadDefaults
                0x00004924      0x150 build/default/production/_ext/840851172/cfg_globals.o
                0x00004924                CFG_LoadDefaults

.text.PDStack_Events%29
                0x00004a74      0x148
 .text.PDStack_Events
                0x00004a74      0x148 build/default/production/_ext/318156199/PDSource_App.o
                0x00004a74                PDStack_Events

.text.SERCOM3_I2C_InterruptHandler%30
                0x00004bbc      0x124
 .text.SERCOM3_I2C_InterruptHandler
                0x00004bbc      0x124 build/default/production/_ext/1955509679/plib_sercom3_i2c.o
                0x00004bbc                SERCOM3_I2C_InterruptHandler

.text.PE_RunStateMachine%31
                0x00004ce0      0x120
 .text.PE_RunStateMachine
                0x00004ce0      0x120 build/default/production/_ext/840851172/policy_engine.o
                0x00004ce0                PE_RunStateMachine

.text.SERCOM0_SPI_WriteRead%32
                0x00004e00      0x108
 .text.SERCOM0_SPI_WriteRead
                0x00004e00      0x108 build/default/production/_ext/1955867357/plib_sercom0_spi.o
                0x00004e00                SERCOM0_SPI_WriteRead

.text.DPM_ValidateRequest%33
                0x00004f08      0x108
 .text.DPM_ValidateRequest
                0x00004f08      0x108 build/default/production/_ext/840851172/policy_manager.o
                0x00004f08                DPM_ValidateRequest

.text%34        0x00005010      0x100
 .text          0x00005010      0x100 c:/program files (x86)/microchip/xc32/v2.30/bin/bin/../../lib/gcc/pic32c/6.2.1\libgcc.a(truncdfsf2.o)
                0x00005010                __aeabi_d2f

.text.PRL_BuildTxPacket%35
                0x00005110       0xd4
 .text.PRL_BuildTxPacket
                0x00005110       0xd4 build/default/production/_ext/840851172/protocol_layer.o
                0x00005110                PRL_BuildTxPacket

.text.PRL_ReceiveMsg%36
                0x000051e4       0xd4
 .text.PRL_ReceiveMsg
                0x000051e4       0xd4 build/default/production/_ext/840851172/protocol_layer.o
                0x000051e4                PRL_ReceiveMsg

.text.CLOCK_Initialize%37
                0x000052b8       0xd0
 .text.CLOCK_Initialize
                0x000052b8       0xd0 build/default/production/_ext/1984496892/plib_clock.o
                0x000052b8                CLOCK_Initialize

.text.UPD_CheckAndDisablePorts%38
                0x00005388       0xc4
 .text.UPD_CheckAndDisablePorts
                0x00005388       0xc4 build/default/production/_ext/840851172/upd_hw.o
                0x00005388                UPD_CheckAndDisablePorts

.text.MchpPSF_Init%39
                0x0000544c       0xb4
 .text.MchpPSF_Init
                0x0000544c       0xb4 build/default/production/_ext/840851172/pd_main.o
                0x0000544c                MchpPSF_Init

.text.TypeC_SrcIntrHandler%40
                0x00005500       0xb4
 .text.TypeC_SrcIntrHandler
                0x00005500       0xb4 build/default/production/_ext/840851172/typeC_control.o
                0x00005500                TypeC_SrcIntrHandler

.text%41        0x000055b4       0xb0
 .text          0x000055b4       0xb0 c:/program files (x86)/microchip/xc32/v2.30/bin/bin/../../lib/gcc/pic32c/6.2.1\libgcc.a(ledf2.o)
                0x000055b4                __ledf2
                0x000055b4                __ltdf2

.text.PB_CalculateNegotiatedPower%42
                0x00005664       0xa8
 .text.PB_CalculateNegotiatedPower
                0x00005664       0xa8 build/default/production/_ext/1936174342/PB_Helper.o
                0x00005664                PB_CalculateNegotiatedPower

.text%43        0x0000570c       0xa8
 .text          0x0000570c       0xa8 c:/program files (x86)/microchip/xc32/v2.30/bin/bin/../../lib/gcc/pic32c/6.2.1\libgcc.a(_divsi3.o)
                0x0000570c                __divsi3
                0x0000570c                __aeabi_idiv
                0x000057a0                __aeabi_idivmod

.text.EIC_Initialize%44
                0x000057b4       0xa4
 .text.EIC_Initialize
                0x000057b4       0xa4 build/default/production/_ext/60167341/plib_eic.o
                0x000057b4                EIC_Initialize

.text.MPQDCDC_Initialize%45
                0x00005858       0xa0
 .text.MPQDCDC_Initialize
                0x00005858       0xa0 build/default/production/_ext/1671623073/mpq_dc_dc_control.o
                0x00005858                MPQDCDC_Initialize

.text%46        0x000058f8       0xa0
 .text          0x000058f8       0xa0 c:/program files (x86)/microchip/xc32/v2.30/bin/bin/../../lib/gcc/pic32c/6.2.1\libgcc.a(gedf2.o)
                0x000058f8                __gedf2
                0x000058f8                __gtdf2

.text.TypeC_CCVBUSIntrHandler%47
                0x00005998       0x9c
 .text.TypeC_CCVBUSIntrHandler
                0x00005998       0x9c build/default/production/_ext/840851172/typeC_control.o
                0x00005998                TypeC_CCVBUSIntrHandler

.text.DPM_CalculateAndSortPower%48
                0x00005a34       0x98
 .text.DPM_CalculateAndSortPower
                0x00005a34       0x98 build/default/production/_ext/840851172/policy_manager.o
                0x00005a34                DPM_CalculateAndSortPower

.text%49        0x00005acc       0x98
 .text          0x00005acc       0x98 c:/program files (x86)/microchip/xc32/v2.30/bin/bin/../../lib/gcc/pic32c/6.2.1\libgcc.a(extendsfdf2.o)
                0x00005acc                __aeabi_f2d

.text.TypeC_VCONN_ON_IntrHandler%50
                0x00005b64       0x94
 .text.TypeC_VCONN_ON_IntrHandler
                0x00005b64       0x94 build/default/production/_ext/840851172/typeC_control.o
                0x00005b64                TypeC_VCONN_ON_IntrHandler

.text.PB_Init%51
                0x00005bf8       0x90
 .text.PB_Init  0x00005bf8       0x90 build/default/production/_ext/1936174342/PB_Helper.o
                0x00005bf8                PB_Init

.text.PB_ReturnHigherPriorityPort%52
                0x00005c88       0x90
 .text.PB_ReturnHigherPriorityPort
                0x00005c88       0x90 build/default/production/_ext/1936174342/PB_Helper.o
                0x00005c88                PB_ReturnHigherPriorityPort

.text.DPM_Get_Source_Capabilities%53
                0x00005d18       0x90
 .text.DPM_Get_Source_Capabilities
                0x00005d18       0x90 build/default/production/_ext/840851172/policy_manager.o
                0x00005d18                DPM_Get_Source_Capabilities

.text.__pic32c_data_initialization%54
                0x00005da8       0x90
 .text.__pic32c_data_initialization
                0x00005da8       0x90 c:/program files (x86)/microchip/xc32/v2.30/bin/bin/../../lib/gcc/pic32c/6.2.1/../../../../pic32c/lib\libpic32c.a(data_init.o)
                0x00005da8                __pic32c_data_initialization

.text.PRL_IncrementMsgID%55
                0x00005e38       0x8c
 .text.PRL_IncrementMsgID
                0x00005e38       0x8c build/default/production/_ext/840851172/protocol_layer.o
                0x00005e38                PRL_IncrementMsgID

.text.TypeC_SetRpCollAvoidance%56
                0x00005ec4       0x8c
 .text.TypeC_SetRpCollAvoidance
                0x00005ec4       0x8c build/default/production/_ext/840851172/typeC_control.o
                0x00005ec4                TypeC_SetRpCollAvoidance

.text.UPDIntr_AlertHandler%57
                0x00005f50       0x8c
 .text.UPDIntr_AlertHandler
                0x00005f50       0x8c build/default/production/_ext/840851172/upd_interrupts.o
                0x00005f50                UPDIntr_AlertHandler

.text%58        0x00005fdc       0x8c
 .text          0x00005fdc       0x8c c:/program files (x86)/microchip/xc32/v2.30/bin/bin/../../lib/gcc/pic32c/6.2.1\libgcc.a(_udivsi3.o)
                0x00005fdc                __aeabi_uidiv
                0x00005fdc                __udivsi3
                0x00006054                __aeabi_uidivmod

.text.PB_UpdatePDO%59
                0x00006068       0x88
 .text.PB_UpdatePDO
                0x00006068       0x88 build/default/production/_ext/1936174342/PB_Helper.o
                0x00006068                PB_UpdatePDO

.text.DPM_VCONNONTimerErrorCB%60
                0x000060f0       0x88
 .text.DPM_VCONNONTimerErrorCB
                0x000060f0       0x88 build/default/production/_ext/840851172/policy_manager.o
                0x000060f0                DPM_VCONNONTimerErrorCB

.text.DPM_HandleClientRequest%61
                0x00006178       0x88
 .text.DPM_HandleClientRequest
                0x00006178       0x88 build/default/production/_ext/840851172/policy_manager.o
                0x00006178                DPM_HandleClientRequest

.text.PRL_TCHChunkSMStateChange_TCHCB%62
                0x00006200       0x88
 .text.PRL_TCHChunkSMStateChange_TCHCB
                0x00006200       0x88 build/default/production/_ext/840851172/protocol_layer.o
                0x00006200                PRL_TCHChunkSMStateChange_TCHCB

.text.TypeC_SetCCSampleEnable%63
                0x00006288       0x84
 .text.TypeC_SetCCSampleEnable
                0x00006288       0x84 build/default/production/_ext/840851172/typeC_control.o
                0x00006288                TypeC_SetCCSampleEnable

.text.UPD_PIOHandleISR%64
                0x0000630c       0x84
 .text.UPD_PIOHandleISR
                0x0000630c       0x84 build/default/production/_ext/840851172/upd_hw.o
                0x0000630c                UPD_PIOHandleISR

.text.UPD_ConfigPwrFaultPIOOvverride%65
                0x00006390       0x84
 .text.UPD_ConfigPwrFaultPIOOvverride
                0x00006390       0x84 build/default/production/_ext/840851172/upd_hw.o
                0x00006390                UPD_ConfigPwrFaultPIOOvverride

.text%66        0x00006414       0x84
 .text          0x00006414       0x84 c:/program files (x86)/microchip/xc32/v2.30/bin/bin/../../lib/gcc/pic32c/6.2.1\libgcc.a(floatsisf.o)
                0x00006414                __aeabi_i2f

.text.PB_ReclaimPower%67
                0x00006498       0x80
 .text.PB_ReclaimPower
                0x00006498       0x80 build/default/production/_ext/1936174342/PB_Helper.o
                0x00006498                PB_ReclaimPower

.text.TypeC_VCONNONErrorTimerCB%68
                0x00006518       0x80
 .text.TypeC_VCONNONErrorTimerCB
                0x00006518       0x80 build/default/production/_ext/840851172/typeC_control.o
                0x00006518                TypeC_VCONNONErrorTimerCB

.text.PB_ReturnHigherPriorityPortWithoutCapMismatch%69
                0x00006598       0x7c
 .text.PB_ReturnHigherPriorityPortWithoutCapMismatch
                0x00006598       0x7c build/default/production/_ext/1936174342/PB_Helper.o
                0x00006598                PB_ReturnHigherPriorityPortWithoutCapMismatch

.text.PDTimer_KillPortTimers%70
                0x00006614       0x7c
 .text.PDTimer_KillPortTimers
                0x00006614       0x7c build/default/production/_ext/840851172/pd_timer.o
                0x00006614                PDTimer_KillPortTimers

.text.PE_IsMsgUnsupported%71
                0x00006690       0x7c
 .text.PE_IsMsgUnsupported
                0x00006690       0x7c build/default/production/_ext/840851172/policy_engine.o
                0x00006690                PE_IsMsgUnsupported

.text.DPM_Init%72
                0x0000670c       0x7c
 .text.DPM_Init
                0x0000670c       0x7c build/default/production/_ext/840851172/policy_manager.o
                0x0000670c                DPM_Init

.text.TypeC_SnkIntrHandler%73
                0x00006788       0x7c
 .text.TypeC_SnkIntrHandler
                0x00006788       0x7c build/default/production/_ext/840851172/typeC_control.o
                0x00006788                TypeC_SnkIntrHandler

.text%74        0x00006804       0x7c
 .text          0x00006804       0x7c c:/program files (x86)/microchip/xc32/v2.30/bin/bin/../../lib/gcc/pic32c/6.2.1\libgcc.a(_arm_cmpdf2.o)
                0x00006804                __aeabi_cdrcmple
                0x00006814                __aeabi_cdcmple
                0x00006814                __aeabi_cdcmpeq
                0x00006824                __aeabi_dcmpeq
                0x00006830                __aeabi_dcmplt
                0x00006844                __aeabi_dcmple
                0x00006858                __aeabi_dcmpgt
                0x0000686c                __aeabi_dcmpge

.text.PB_CalculateRequiredPortPower%75
                0x00006880       0x78
 .text.PB_CalculateRequiredPortPower
                0x00006880       0x78 build/default/production/_ext/1936174342/PB_Helper.o
                0x00006880                PB_CalculateRequiredPortPower

.text%76        0x000068f8       0xee
 .text          0x000068f8       0x78 c:/program files (x86)/microchip/xc32/v2.30/bin/bin/../../lib/gcc/pic32c/6.2.1\libgcc.a(gesf2.o)
                0x000068f8                __gesf2
                0x000068f8                __gtsf2
 .text          0x00006970       0x76 c:/program files (x86)/microchip/xc32/v2.30/bin/bin/../../lib/gcc/pic32c/6.2.1\libgcc.a(lesf2.o)
                0x00006970                __ltsf2
                0x00006970                __lesf2

.text.PB_InitializePortParam%78
                0x000069e8       0x74
 .text.PB_InitializePortParam
                0x000069e8       0x74 build/default/production/_ext/1936174342/PB_Helper.o
                0x000069e8                PB_InitializePortParam

.text.DPM_UpdateAdvertisedPDOParam%79
                0x00006a5c       0x74
 .text.DPM_UpdateAdvertisedPDOParam
                0x00006a5c       0x74 build/default/production/_ext/840851172/policy_manager.o
                0x00006a5c                DPM_UpdateAdvertisedPDOParam

.text.PRL_SendCableorHardReset%80
                0x00006ad0       0x74
 .text.PRL_SendCableorHardReset
                0x00006ad0       0x74 build/default/production/_ext/840851172/protocol_layer.o
                0x00006ad0                PRL_SendCableorHardReset

.text%81        0x00006b44      0x1cc
 .text          0x00006b44       0x74 c:/program files (x86)/microchip/xc32/v2.30/bin/bin/../../lib/gcc/pic32c/6.2.1\libgcc.a(floatunsisf.o)
                0x00006b44                __aeabi_ui2f
 .text          0x00006bb8       0x74 c:/program files (x86)/microchip/xc32/v2.30/bin/bin/../../lib/gcc/pic32c/6.2.1\libgcc.a(floatsidf.o)
                0x00006bb8                __aeabi_i2d
 .text          0x00006c2c       0x74 c:/program files (x86)/microchip/xc32/v2.30/bin/bin/../../lib/gcc/pic32c/6.2.1\libgcc.a(_arm_cmpsf2.o)
                0x00006c2c                __aeabi_cfrcmple
                0x00006c34                __aeabi_cfcmpeq
                0x00006c34                __aeabi_cfcmple
                0x00006c44                __aeabi_fcmpeq
                0x00006c50                __aeabi_fcmplt
                0x00006c64                __aeabi_fcmple
                0x00006c78                __aeabi_fcmpgt
                0x00006c8c                __aeabi_fcmpge
 .text          0x00006ca0       0x70 c:/program files (x86)/microchip/xc32/v2.30/bin/bin/../../lib/gcc/pic32c/6.2.1\libgcc.a(eqdf2.o)
                0x00006ca0                __nedf2
                0x00006ca0                __eqdf2

.dinit%85       0x00006d10       0x70
 .dinit         0x00006d10       0x70 data_init

.text.NVIC_Initialize%86
                0x00006d80       0x6c
 .text.NVIC_Initialize
                0x00006d80       0x6c build/default/production/_ext/1865468468/plib_nvic.o
                0x00006d80                NVIC_Initialize

.text.UPD_FaultInInit%87
                0x00006dec       0x6c
 .text.UPD_FaultInInit
                0x00006dec       0x6c build/default/production/_ext/840851172/upd_hw.o
                0x00006dec                UPD_FaultInInit

.text.PB_SinkCapsReceivedHandler%88
                0x00006e58       0x68
 .text.PB_SinkCapsReceivedHandler
                0x00006e58       0x68 build/default/production/_ext/1936174342/PB_Helper.o
                0x00006e58                PB_SinkCapsReceivedHandler

.text%89        0x00006ec0       0x68
 .text          0x00006ec0       0x68 c:/program files (x86)/microchip/xc32/v2.30/bin/bin/../../lib/gcc/pic32c/6.2.1\libgcc.a(fixdfsi.o)
                0x00006ec0                __aeabi_d2iz

.text.PORT_Initialize%90
                0x00006f28       0x64
 .text.PORT_Initialize
                0x00006f28       0x64 build/default/production/_ext/1865521619/plib_port.o
                0x00006f28                PORT_Initialize

.text.PDTimer_Start%91
                0x00006f8c       0x64
 .text.PDTimer_Start
                0x00006f8c       0x64 build/default/production/_ext/840851172/pd_timer.o
                0x00006f8c                PDTimer_Start

.text.PE_SubStateChangeAndTimeoutValidateCB%92
                0x00006ff0       0x64
 .text.PE_SubStateChangeAndTimeoutValidateCB
                0x00006ff0       0x64 build/default/production/_ext/840851172/policy_engine.o
                0x00006ff0                PE_SubStateChangeAndTimeoutValidateCB

.text.PRL_TxRxMsgID_Reset%93
                0x00007054       0x64
 .text.PRL_TxRxMsgID_Reset
                0x00007054       0x64 build/default/production/_ext/840851172/protocol_layer.o
                0x00007054                PRL_TxRxMsgID_Reset

.text.SAMD20_UPD350AlertInit%94
                0x000070b8       0x60
 .text.SAMD20_UPD350AlertInit
                0x000070b8       0x60 build/default/production/_ext/1671623073/Drivers.o
                0x000070b8                SAMD20_UPD350AlertInit

.text.PWRCTRL_initialization%95
                0x00007118       0x60
 .text.PWRCTRL_initialization
                0x00007118       0x60 build/default/production/_ext/840851172/portpower_control.o
                0x00007118                PWRCTRL_initialization

.text.PRL_UpdateTotalChunkNumVar%96
                0x00007178       0x60
 .text.PRL_UpdateTotalChunkNumVar
                0x00007178       0x60 build/default/production/_ext/840851172/protocol_layer.o
                0x00007178                PRL_UpdateTotalChunkNumVar

.text.PDTimer_InterruptHandler%97
                0x000071d8       0x5c
 .text.PDTimer_InterruptHandler
                0x000071d8       0x5c build/default/production/_ext/840851172/pd_timer.o
                0x000071d8                PDTimer_InterruptHandler

.text.PRL_RCHChunkSMStateChange_RCHCB%98
                0x00007234       0x5c
 .text.PRL_RCHChunkSMStateChange_RCHCB
                0x00007234       0x5c build/default/production/_ext/840851172/protocol_layer.o
                0x00007234                PRL_RCHChunkSMStateChange_RCHCB

.text.TypeC_Reset_VCONNDIS_Settings%99
                0x00007290       0x5c
 .text.TypeC_Reset_VCONNDIS_Settings
                0x00007290       0x5c build/default/production/_ext/840851172/typeC_control.o
                0x00007290                TypeC_Reset_VCONNDIS_Settings

.text.Reset_Handler%100
                0x000072ec       0x58
 .text.Reset_Handler
                0x000072ec       0x58 build/default/production/_ext/1171490990/startup_xc32.o
                0x000072ec                Reset_Handler

.text.SAMD20_I2CDCDCAlertInit%101
                0x00007344       0x58
 .text.SAMD20_I2CDCDCAlertInit
                0x00007344       0x58 build/default/production/_ext/1671623073/Drivers.o
                0x00007344                SAMD20_I2CDCDCAlertInit

.text.PE_InitPort%102
                0x0000739c       0x58
 .text.PE_InitPort
                0x0000739c       0x58 build/default/production/_ext/840851172/policy_engine.o
                0x0000739c                PE_InitPort

.text.DPM_TypeCVBus5VOnOff%103
                0x000073f4       0x58
 .text.DPM_TypeCVBus5VOnOff
                0x000073f4       0x58 build/default/production/_ext/840851172/policy_manager.o
                0x000073f4                DPM_TypeCVBus5VOnOff

.text.PWRCTRL_ConfigDCDCEn%104
                0x0000744c       0x58
 .text.PWRCTRL_ConfigDCDCEn
                0x0000744c       0x58 build/default/production/_ext/840851172/portpower_control.o
                0x0000744c                PWRCTRL_ConfigDCDCEn

.text.PRL_SetCollisionAvoidance%105
                0x000074a4       0x58
 .text.PRL_SetCollisionAvoidance
                0x000074a4       0x58 build/default/production/_ext/840851172/protocol_layer.o
                0x000074a4                PRL_SetCollisionAvoidance

.text.SERCOM3_I2C_InitiateTransfer%106
                0x000074fc       0x54
 .text.SERCOM3_I2C_InitiateTransfer
                0x000074fc       0x54 build/default/production/_ext/1955509679/plib_sercom3_i2c.o

.text.PB_IdentifyLowestPriorityPort%107
                0x00007550       0x54
 .text.PB_IdentifyLowestPriorityPort
                0x00007550       0x54 build/default/production/_ext/1936174342/PB_Helper.o
                0x00007550                PB_IdentifyLowestPriorityPort

.text.PWRCTRL_ConfigVBUSDischarge%108
                0x000075a4       0x54
 .text.PWRCTRL_ConfigVBUSDischarge
                0x000075a4       0x54 build/default/production/_ext/840851172/portpower_control.o
                0x000075a4                PWRCTRL_ConfigVBUSDischarge

.text.TypeC_ConfigCCComp%109
                0x000075f8       0x54
 .text.TypeC_ConfigCCComp
                0x000075f8       0x54 build/default/production/_ext/840851172/typeC_control.o
                0x000075f8                TypeC_ConfigCCComp

.text.TypeC_SetPowerRole%110
                0x0000764c       0x54
 .text.TypeC_SetPowerRole
                0x0000764c       0x54 build/default/production/_ext/840851172/typeC_control.o
                0x0000764c                TypeC_SetPowerRole

.text.TypeC_DecodeSourceRpValue%111
                0x000076a0       0x54
 .text.TypeC_DecodeSourceRpValue
                0x000076a0       0x54 build/default/production/_ext/840851172/typeC_control.o
                0x000076a0                TypeC_DecodeSourceRpValue

.text.UPD_FindVBusCorrectionFactor%112
                0x000076f4       0x54
 .text.UPD_FindVBusCorrectionFactor
                0x000076f4       0x54 build/default/production/_ext/840851172/upd_hw.o
                0x000076f4                UPD_FindVBusCorrectionFactor

.text.PRL_FormRequestChunkMsgHeader%113
                0x00007748       0x50
 .text.PRL_FormRequestChunkMsgHeader
                0x00007748       0x50 build/default/production/_ext/840851172/protocol_layer.o
                0x00007748                PRL_FormRequestChunkMsgHeader

.text.PRL_ConfigureBISTCarrierMode%114
                0x00007798       0x50
 .text.PRL_ConfigureBISTCarrierMode
                0x00007798       0x50 build/default/production/_ext/840851172/protocol_layer.o
                0x00007798                PRL_ConfigureBISTCarrierMode

.text.MPQDCDC_SetPortPower%115
                0x000077e8       0x4c
 .text.MPQDCDC_SetPortPower
                0x000077e8       0x4c build/default/production/_ext/1671623073/mpq_dc_dc_control.o
                0x000077e8                MPQDCDC_SetPortPower

.text.PB_SetRenegotiationPendingForLowPriorityPorts%116
                0x00007834       0x4c
 .text.PB_SetRenegotiationPendingForLowPriorityPorts
                0x00007834       0x4c build/default/production/_ext/1936174342/PB_Helper.o
                0x00007834                PB_SetRenegotiationPendingForLowPriorityPorts

.text.PE_ValidateMessage%117
                0x00007880       0x4c
 .text.PE_ValidateMessage
                0x00007880       0x4c build/default/production/_ext/840851172/policy_engine.o
                0x00007880                PE_ValidateMessage

.text.PE_IsPolicyEngineIdle%118
                0x000078cc       0x4c
 .text.PE_IsPolicyEngineIdle
                0x000078cc       0x4c build/default/production/_ext/840851172/policy_engine.o
                0x000078cc                PE_IsPolicyEngineIdle

.text.PRL_TxOriginalCBfromCH%119
                0x00007918       0x4c
 .text.PRL_TxOriginalCBfromCH
                0x00007918       0x4c build/default/production/_ext/840851172/protocol_layer.o
                0x00007918                PRL_TxOriginalCBfromCH

.text.TypeC_SetDefaultRpValue%120
                0x00007964       0x4c
 .text.TypeC_SetDefaultRpValue
                0x00007964       0x4c build/default/production/_ext/840851172/typeC_control.o
                0x00007964                TypeC_SetDefaultRpValue

.text%121       0x000079b0       0x4a
 .text          0x000079b0       0x4a c:/program files (x86)/microchip/xc32/v2.30/bin/bin/../../lib/gcc/pic32c/6.2.1\libgcc.a(eqsf2.o)
                0x000079b0                __eqsf2
                0x000079b0                __nesf2

.text%122       0x000079fc       0x48
 .text          0x000079fc       0x48 c:/program files (x86)/microchip/xc32/v2.30/bin/bin/../../lib/gcc/pic32c/6.2.1/crtbegin.o

.text.SERCOM3_I2C_Initialize%123
                0x00007a44       0x48
 .text.SERCOM3_I2C_Initialize
                0x00007a44       0x48 build/default/production/_ext/1955509679/plib_sercom3_i2c.o
                0x00007a44                SERCOM3_I2C_Initialize

.text.DPM_SetPortPower%124
                0x00007a8c       0x48
 .text.DPM_SetPortPower
                0x00007a8c       0x48 build/default/production/_ext/840851172/policy_manager.o
                0x00007a8c                DPM_SetPortPower

.text.DPM_StoreVDMECableData%125
                0x00007ad4       0x48
 .text.DPM_StoreVDMECableData
                0x00007ad4       0x48 build/default/production/_ext/840851172/policy_manager.o
                0x00007ad4                DPM_StoreVDMECableData

.text.__libc_init_array%126
                0x00007b1c       0x48
 .text.__libc_init_array
                0x00007b1c       0x48 c:/program files (x86)/microchip/xc32/v2.30/bin/bin/../../lib/gcc/pic32c/6.2.1/../../../../pic32c/lib\libc.a(lib_a-init.o)
                0x00007b1c                __libc_init_array

.text.UPD_GPIOSetDebounce%127
                0x00007b64       0x46
 .text.UPD_GPIOSetDebounce
                0x00007b64       0x46 build/default/production/_ext/840851172/upd_hw.o
                0x00007b64                UPD_GPIOSetDebounce

.text.MPQDCDC_FaultHandler%128
                0x00007bac       0x44
 .text.MPQDCDC_FaultHandler
                0x00007bac       0x44 build/default/production/_ext/1671623073/mpq_dc_dc_control.o
                0x00007bac                MPQDCDC_FaultHandler

.text.TC0_TimerInitialize%129
                0x00007bf0       0x40
 .text.TC0_TimerInitialize
                0x00007bf0       0x40 build/default/production/_ext/829342655/plib_tc0.o
                0x00007bf0                TC0_TimerInitialize

.text.PE_StateChange_TransmitCB%130
                0x00007c30       0x40
 .text.PE_StateChange_TransmitCB
                0x00007c30       0x40 build/default/production/_ext/840851172/policy_engine.o
                0x00007c30                PE_StateChange_TransmitCB

.text.DPM_ChangeCapabilities%131
                0x00007c70       0x40
 .text.DPM_ChangeCapabilities
                0x00007c70       0x40 build/default/production/_ext/840851172/policy_manager.o
                0x00007c70                DPM_ChangeCapabilities

.text.PRL_UpdateSpecAndDeviceRoles%132
                0x00007cb0       0x40
 .text.PRL_UpdateSpecAndDeviceRoles
                0x00007cb0       0x40 build/default/production/_ext/840851172/protocol_layer.o
                0x00007cb0                PRL_UpdateSpecAndDeviceRoles

.text.PRL_ProcessRxFIFOISR%133
                0x00007cf0       0x40
 .text.PRL_ProcessRxFIFOISR
                0x00007cf0       0x40 build/default/production/_ext/840851172/protocol_layer.o
                0x00007cf0                PRL_ProcessRxFIFOISR

.text.PRL_ResetChunkSM%134
                0x00007d30       0x40
 .text.PRL_ResetChunkSM
                0x00007d30       0x40 build/default/production/_ext/840851172/protocol_layer.o
                0x00007d30                PRL_ResetChunkSM

.text.TypeC_SetVBUSCompONOFF%135
                0x00007d70       0x40
 .text.TypeC_SetVBUSCompONOFF
                0x00007d70       0x40 build/default/production/_ext/840851172/typeC_control.o
                0x00007d70                TypeC_SetVBUSCompONOFF

.text.EIC_InterruptHandler%136
                0x00007db0       0x3c
 .text.EIC_InterruptHandler
                0x00007db0       0x3c build/default/production/_ext/60167341/plib_eic.o
                0x00007db0                EIC_InterruptHandler

.text.PB_UpdateAttachSeq%137
                0x00007dec       0x3c
 .text.PB_UpdateAttachSeq
                0x00007dec       0x3c build/default/production/_ext/1936174342/PB_Helper.o
                0x00007dec                PB_UpdateAttachSeq

.text.PB_NegotiateIfRequiredPwrAvailableInPool%138
                0x00007e28       0x3c
 .text.PB_NegotiateIfRequiredPwrAvailableInPool
                0x00007e28       0x3c build/default/production/_ext/1936174342/PB_Helper.o
                0x00007e28                PB_NegotiateIfRequiredPwrAvailableInPool

.text.PE_HandleRcvdMsgAndTimeoutEvents%139
                0x00007e64       0x3c
 .text.PE_HandleRcvdMsgAndTimeoutEvents
                0x00007e64       0x3c build/default/production/_ext/840851172/policy_engine.o
                0x00007e64                PE_HandleRcvdMsgAndTimeoutEvents

.text.DPM_StateMachineInit%140
                0x00007ea0       0x3c
 .text.DPM_StateMachineInit
                0x00007ea0       0x3c build/default/production/_ext/840851172/policy_manager.o
                0x00007ea0                DPM_StateMachineInit

.text.DPM_GetVBUSVoltage%141
                0x00007edc       0x3c
 .text.DPM_GetVBUSVoltage
                0x00007edc       0x3c build/default/production/_ext/840851172/policy_manager.o
                0x00007edc                DPM_GetVBUSVoltage

.text.PRL_HRorCRCompltIndicationFromPE%142
                0x00007f18       0x3c
 .text.PRL_HRorCRCompltIndicationFromPE
                0x00007f18       0x3c build/default/production/_ext/840851172/protocol_layer.o
                0x00007f18                PRL_HRorCRCompltIndicationFromPE

.text.PRL_CommitPendingTxOnCAISR%143
                0x00007f54       0x3c
 .text.PRL_CommitPendingTxOnCAISR
                0x00007f54       0x3c build/default/production/_ext/840851172/protocol_layer.o
                0x00007f54                PRL_CommitPendingTxOnCAISR

.text.TypeC_SetCCDebounceVariable%144
                0x00007f90       0x3c
 .text.TypeC_SetCCDebounceVariable
                0x00007f90       0x3c build/default/production/_ext/840851172/typeC_control.o
                0x00007f90                TypeC_SetCCDebounceVariable

.text.UPD_EnableFaultIn%145
                0x00007fcc       0x3c
 .text.UPD_EnableFaultIn
                0x00007fcc       0x3c build/default/production/_ext/840851172/upd_hw.o
                0x00007fcc                UPD_EnableFaultIn

.text%146       0x00008008       0x78
 .text          0x00008008       0x3c c:/program files (x86)/microchip/xc32/v2.30/bin/bin/../../lib/gcc/pic32c/6.2.1\libgcc.a(fixsfsi.o)
                0x00008008                __aeabi_f2iz
 .text          0x00008044       0x3c c:/program files (x86)/microchip/xc32/v2.30/bin/bin/../../lib/gcc/pic32c/6.2.1\libgcc.a(_clzsi2.o)
                0x00008044                __clzsi2

.text.UPD_RegisterReadISR%148
                0x00008080       0x3a
 .text.UPD_RegisterReadISR
                0x00008080       0x3a build/default/production/_ext/840851172/upd_hw.o
                0x00008080                UPD_RegisterReadISR

.text.PE_SendNotSupportedOrRejectMsg%149
                0x000080bc       0x38
 .text.PE_SendNotSupportedOrRejectMsg
                0x000080bc       0x38 build/default/production/_ext/840851172/policy_engine.o
                0x000080bc                PE_SendNotSupportedOrRejectMsg

.text.PRL_FormSOPTypeMsgHeader%150
                0x000080f4       0x38
 .text.PRL_FormSOPTypeMsgHeader
                0x000080f4       0x38 build/default/production/_ext/840851172/protocol_layer.o
                0x000080f4                PRL_FormSOPTypeMsgHeader

.text.PRL_EnableRx%151
                0x0000812c       0x38
 .text.PRL_EnableRx
                0x0000812c       0x38 build/default/production/_ext/840851172/protocol_layer.o
                0x0000812c                PRL_EnableRx

.text.UPD_RegisterWriteISR%152
                0x00008164       0x38
 .text.UPD_RegisterWriteISR
                0x00008164       0x38 build/default/production/_ext/840851172/upd_hw.o
                0x00008164                UPD_RegisterWriteISR

.text%153       0x0000819c       0x38
 .text          0x0000819c       0x38 c:/program files (x86)/microchip/xc32/v2.30/bin/bin/../../lib/gcc/pic32c/6.2.1\libgcc.a(_fixunsdfsi.o)
                0x0000819c                __aeabi_d2uiz
                0x0000819c                __fixunsdfsi

.text.SAMD20_DriveChipSelect%154
                0x000081d4       0x34
 .text.SAMD20_DriveChipSelect
                0x000081d4       0x34 build/default/production/_ext/1671623073/Drivers.o
                0x000081d4                SAMD20_DriveChipSelect

.text.SAMD20_ResetUPD350%155
                0x00008208       0x34
 .text.SAMD20_ResetUPD350
                0x00008208       0x34 build/default/production/_ext/1671623073/Drivers.o
                0x00008208                SAMD20_ResetUPD350

.text.PE_SendHardResetMsg%156
                0x0000823c       0x34
 .text.PE_SendHardResetMsg
                0x0000823c       0x34 build/default/production/_ext/840851172/policy_engine.o
                0x0000823c                PE_SendHardResetMsg

.text.PE_SendSoftResetMsg%157
                0x00008270       0x34
 .text.PE_SendSoftResetMsg
                0x00008270       0x34 build/default/production/_ext/840851172/policy_engine.o
                0x00008270                PE_SendSoftResetMsg

.text.DPM_ComparePDOs%158
                0x000082a4       0x34
 .text.DPM_ComparePDOs
                0x000082a4       0x34 build/default/production/_ext/840851172/policy_manager.o
                0x000082a4                DPM_ComparePDOs

.text.PRL_ProtocolReset%159
                0x000082d8       0x34
 .text.PRL_ProtocolReset
                0x000082d8       0x34 build/default/production/_ext/840851172/protocol_layer.o
                0x000082d8                PRL_ProtocolReset

.text.MPQDCDC_Write%160
                0x0000830c       0x32
 .text.MPQDCDC_Write
                0x0000830c       0x32 build/default/production/_ext/1671623073/mpq_dc_dc_control.o
                0x0000830c                MPQDCDC_Write

.text.PB_ReleaseExcessPwr%161
                0x00008340       0x30
 .text.PB_ReleaseExcessPwr
                0x00008340       0x30 build/default/production/_ext/1936174342/PB_Helper.o
                0x00008340                PB_ReleaseExcessPwr

.text.PE_FindVDMStateActiveFlag%162
                0x00008370       0x30
 .text.PE_FindVDMStateActiveFlag
                0x00008370       0x30 build/default/production/_ext/840851172/policy_engine.o
                0x00008370                PE_FindVDMStateActiveFlag

.text.DPM_EnablePowerFaultDetection%163
                0x000083a0       0x30
 .text.DPM_EnablePowerFaultDetection
                0x000083a0       0x30 build/default/production/_ext/840851172/policy_manager.o
                0x000083a0                DPM_EnablePowerFaultDetection

.text%164       0x000083d0       0x2e
 .text          0x000083d0       0x2e c:/program files (x86)/microchip/xc32/v2.30/bin/bin/../../lib/gcc/pic32c/6.2.1\libgcc.a(_fixunssfsi.o)
                0x000083d0                __fixunssfsi
                0x000083d0                __aeabi_f2uiz

.text.SERCOM3_I2C_WriteRead%165
                0x00008400       0x2c
 .text.SERCOM3_I2C_WriteRead
                0x00008400       0x2c build/default/production/_ext/1955509679/plib_sercom3_i2c.o
                0x00008400                SERCOM3_I2C_WriteRead

.text.SERCOM0_SPI_Initialize%166
                0x0000842c       0x2c
 .text.SERCOM0_SPI_Initialize
                0x0000842c       0x2c build/default/production/_ext/1955867357/plib_sercom0_spi.o
                0x0000842c                SERCOM0_SPI_Initialize

.text.PB_IdentifyHighestPriorityPortInPendingState%167
                0x00008458       0x2c
 .text.PB_IdentifyHighestPriorityPortInPendingState
                0x00008458       0x2c build/default/production/_ext/1936174342/PB_Helper.o
                0x00008458                PB_IdentifyHighestPriorityPortInPendingState

.text.PDTimer_Kill%168
                0x00008484       0x2c
 .text.PDTimer_Kill
                0x00008484       0x2c build/default/production/_ext/840851172/pd_timer.o
                0x00008484                PDTimer_Kill

.text.DPM_ResetNewPDOParameters%169
                0x000084b0       0x2c
 .text.DPM_ResetNewPDOParameters
                0x000084b0       0x2c build/default/production/_ext/840851172/policy_manager.o
                0x000084b0                DPM_ResetNewPDOParameters

.text.DPM_StoreSinkCapabilities%170
                0x000084dc       0x2c
 .text.DPM_StoreSinkCapabilities
                0x000084dc       0x2c build/default/production/_ext/840851172/policy_manager.o
                0x000084dc                DPM_StoreSinkCapabilities

.text.DPM_VBUSOnOffTimerCB%171
                0x00008508       0x2c
 .text.DPM_VBUSOnOffTimerCB
                0x00008508       0x2c build/default/production/_ext/840851172/policy_manager.o
                0x00008508                DPM_VBUSOnOffTimerCB

.text.UPD_RegByteSetBit%172
                0x00008534       0x2c
 .text.UPD_RegByteSetBit
                0x00008534       0x2c build/default/production/_ext/840851172/upd_hw.o
                0x00008534                UPD_RegByteSetBit

.text.UPD_RegByteClearBit%173
                0x00008560       0x2c
 .text.UPD_RegByteClearBit
                0x00008560       0x2c build/default/production/_ext/840851172/upd_hw.o
                0x00008560                UPD_RegByteClearBit

.text.UPD_GPIOUpdateOutput%174
                0x0000858c       0x2c
 .text.UPD_GPIOUpdateOutput
                0x0000858c       0x2c build/default/production/_ext/840851172/upd_hw.o
                0x0000858c                UPD_GPIOUpdateOutput

.text.SERCOM3_I2C_Write%175
                0x000085b8       0x28
 .text.SERCOM3_I2C_Write
                0x000085b8       0x28 build/default/production/_ext/1955509679/plib_sercom3_i2c.o
                0x000085b8                SERCOM3_I2C_Write

.text.SAMD20_SPIReaddriver%176
                0x000085e0       0x28
 .text.SAMD20_SPIReaddriver
                0x000085e0       0x28 build/default/production/_ext/1671623073/Drivers.o
                0x000085e0                SAMD20_SPIReaddriver

.text.MPQDCDC_GetFaultStatus%177
                0x00008608       0x28
 .text.MPQDCDC_GetFaultStatus
                0x00008608       0x28 build/default/production/_ext/1671623073/mpq_dc_dc_control.o
                0x00008608                MPQDCDC_GetFaultStatus

.text.PB_IsNegotiationInProgressForOtherPort%178
                0x00008630       0x28
 .text.PB_IsNegotiationInProgressForOtherPort
                0x00008630       0x28 build/default/production/_ext/1936174342/PB_Helper.o
                0x00008630                PB_IsNegotiationInProgressForOtherPort

.text.PB_InitiateNextPortNegotiation%179
                0x00008658       0x28
 .text.PB_InitiateNextPortNegotiation
                0x00008658       0x28 build/default/production/_ext/1936174342/PB_Helper.o
                0x00008658                PB_InitiateNextPortNegotiation

.text.DPM_Get_Sink_Capabilities%180
                0x00008680       0x28
 .text.DPM_Get_Sink_Capabilities
                0x00008680       0x28 build/default/production/_ext/840851172/policy_manager.o
                0x00008680                DPM_Get_Sink_Capabilities

.text.DPM_VCONNOFFErrorTimerCB%181
                0x000086a8       0x28
 .text.DPM_VCONNOFFErrorTimerCB
                0x000086a8       0x28 build/default/production/_ext/840851172/policy_manager.o
                0x000086a8                DPM_VCONNOFFErrorTimerCB

.text.PRL_FormNonSOPTypeMsgHeader%182
                0x000086d0       0x28
 .text.PRL_FormNonSOPTypeMsgHeader
                0x000086d0       0x28 build/default/production/_ext/840851172/protocol_layer.o
                0x000086d0                PRL_FormNonSOPTypeMsgHeader

.text.PRL_IsAnyMsgPendinginPRL%183
                0x000086f8       0x28
 .text.PRL_IsAnyMsgPendinginPRL
                0x000086f8       0x28 build/default/production/_ext/840851172/protocol_layer.o
                0x000086f8                PRL_IsAnyMsgPendinginPRL

.text.main%184  0x00008720       0x28
 .text.main     0x00008720       0x28 build/default/production/_ext/1360937237/main.o
                0x00008720                main

.text.SERCOM3_I2C_IsBusy%185
                0x00008748       0x24
 .text.SERCOM3_I2C_IsBusy
                0x00008748       0x24 build/default/production/_ext/1955509679/plib_sercom3_i2c.o
                0x00008748                SERCOM3_I2C_IsBusy

.text.TC0_TimerInterruptHandler%186
                0x0000876c       0x24
 .text.TC0_TimerInterruptHandler
                0x0000876c       0x24 build/default/production/_ext/829342655/plib_tc0.o
                0x0000876c                TC0_TimerInterruptHandler

.text.MchpPSF_RUN%187
                0x00008790       0x24
 .text.MchpPSF_RUN
                0x00008790       0x24 build/default/production/_ext/840851172/pd_main.o
                0x00008790                MchpPSF_RUN

.text.PE_HandleUnExpectedMsg%188
                0x000087b4       0x24
 .text.PE_HandleUnExpectedMsg
                0x000087b4       0x24 build/default/production/_ext/840851172/policy_engine.o
                0x000087b4                PE_HandleUnExpectedMsg

.text.PRL_ChunkStateChange_TimerCB%189
                0x000087d8       0x24
 .text.PRL_ChunkStateChange_TimerCB
                0x000087d8       0x24 build/default/production/_ext/840851172/protocol_layer.o
                0x000087d8                PRL_ChunkStateChange_TimerCB

.text.TypeC_VCONNDis_On_IntrHandler%190
                0x000087fc       0x24
 .text.TypeC_VCONNDis_On_IntrHandler
                0x000087fc       0x24 build/default/production/_ext/840851172/typeC_control.o
                0x000087fc                TypeC_VCONNDis_On_IntrHandler

.text.TypeC_SetDataRole%191
                0x00008820       0x22
 .text.TypeC_SetDataRole
                0x00008820       0x22 build/default/production/_ext/840851172/typeC_control.o
                0x00008820                TypeC_SetDataRole

.text.PB_ChangePortStates%192
                0x00008844       0x20
 .text.PB_ChangePortStates
                0x00008844       0x20 build/default/production/_ext/1936174342/PB_Helper.o
                0x00008844                PB_ChangePortStates

.text.PB_InitiateGetSinkCapsWrapper%193
                0x00008864       0x20
 .text.PB_InitiateGetSinkCapsWrapper
                0x00008864       0x20 build/default/production/_ext/1936174342/PB_Helper.o
                0x00008864                PB_InitiateGetSinkCapsWrapper

.text.PB_InitiateNegotiationWrapper%194
                0x00008884       0x20
 .text.PB_InitiateNegotiationWrapper
                0x00008884       0x20 build/default/production/_ext/1936174342/PB_Helper.o
                0x00008884                PB_InitiateNegotiationWrapper

.text.IntGlobals_PDInitialization%195
                0x000088a4       0x20
 .text.IntGlobals_PDInitialization
                0x000088a4       0x20 build/default/production/_ext/840851172/int_globals.o
                0x000088a4                IntGlobals_PDInitialization

.text.PDTimer_Init%196
                0x000088c4       0x20
 .text.PDTimer_Init
                0x000088c4       0x20 build/default/production/_ext/840851172/pd_timer.o
                0x000088c4                PDTimer_Init

.text.PRL_PHYLayerReset%197
                0x000088e4       0x20
 .text.PRL_PHYLayerReset
                0x000088e4       0x20 build/default/production/_ext/840851172/protocol_layer.o
                0x000088e4                PRL_PHYLayerReset

.text.UPD_RegisterWrite%198
                0x00008904       0x20
 .text.UPD_RegisterWrite
                0x00008904       0x20 build/default/production/_ext/840851172/upd_hw.o
                0x00008904                UPD_RegisterWrite

.text.UPD_RegisterRead%199
                0x00008924       0x20
 .text.UPD_RegisterRead
                0x00008924       0x20 build/default/production/_ext/840851172/upd_hw.o
                0x00008924                UPD_RegisterRead

.text.EIC_CallbackRegister%200
                0x00008944       0x1c
 .text.EIC_CallbackRegister
                0x00008944       0x1c build/default/production/_ext/60167341/plib_eic.o
                0x00008944                EIC_CallbackRegister

.text.SAMD20_HWTimerInit%201
                0x00008960       0x1c
 .text.SAMD20_HWTimerInit
                0x00008960       0x1c build/default/production/_ext/1671623073/Drivers.o
                0x00008960                SAMD20_HWTimerInit

.text.PE_NoResponseTimerCB%202
                0x0000897c       0x1c
 .text.PE_NoResponseTimerCB
                0x0000897c       0x1c build/default/production/_ext/840851172/policy_engine.o
                0x0000897c                PE_NoResponseTimerCB

.text.PE_KillPolicyEngineTimer%203
                0x00008998       0x1c
 .text.PE_KillPolicyEngineTimer
                0x00008998       0x1c build/default/production/_ext/840851172/policy_engine.o
                0x00008998                PE_KillPolicyEngineTimer

.text.PRL_CASinkTxTimerOut_TimerCB%204
                0x000089b4       0x1c
 .text.PRL_CASinkTxTimerOut_TimerCB
                0x000089b4       0x1c build/default/production/_ext/840851172/protocol_layer.o
                0x000089b4                PRL_CASinkTxTimerOut_TimerCB

.text.PRL_KillCAorChunkSMTimer%205
                0x000089d0       0x1c
 .text.PRL_KillCAorChunkSMTimer
                0x000089d0       0x1c build/default/production/_ext/840851172/protocol_layer.o
                0x000089d0                PRL_KillCAorChunkSMTimer

.text.UPD_ConfigurePIODebounceCount%206
                0x000089ec       0x1c
 .text.UPD_ConfigurePIODebounceCount
                0x000089ec       0x1c build/default/production/_ext/840851172/upd_hw.o
                0x000089ec                UPD_ConfigurePIODebounceCount

.text.UPD_GPIOEnableDisable%207
                0x00008a08       0x1a
 .text.UPD_GPIOEnableDisable
                0x00008a08       0x1a build/default/production/_ext/840851172/upd_hw.o
                0x00008a08                UPD_GPIOEnableDisable

.text.UPD_GPIOSetDirection%208
                0x00008a22       0x1a
 .text.UPD_GPIOSetDirection
                0x00008a22       0x1a build/default/production/_ext/840851172/upd_hw.o
                0x00008a22                UPD_GPIOSetDirection

.text.UPD_GPIOSetBufferType%209
                0x00008a3c       0x1a
 .text.UPD_GPIOSetBufferType
                0x00008a3c       0x1a build/default/production/_ext/840851172/upd_hw.o
                0x00008a3c                UPD_GPIOSetBufferType

.text.UPD_GPIOSetClearOutput%210
                0x00008a56       0x1a
 .text.UPD_GPIOSetClearOutput
                0x00008a56       0x1a build/default/production/_ext/840851172/upd_hw.o
                0x00008a56                UPD_GPIOSetClearOutput

.text.UPD_GPIOInit%211
                0x00008a70       0x1a
 .text.UPD_GPIOInit
                0x00008a70       0x1a build/default/production/_ext/840851172/upd_hw.o
                0x00008a70                UPD_GPIOInit

.text.TC0_TimerStart%212
                0x00008a8c       0x18
 .text.TC0_TimerStart
                0x00008a8c       0x18 build/default/production/_ext/829342655/plib_tc0.o
                0x00008a8c                TC0_TimerStart

.text.SYS_Initialize%213
                0x00008aa4       0x18
 .text.SYS_Initialize
                0x00008aa4       0x18 build/default/production/_ext/1171490990/initialization.o
                0x00008aa4                SYS_Initialize

.text.DPM_GetTypeCStates%214
                0x00008abc       0x18
 .text.DPM_GetTypeCStates
                0x00008abc       0x18 build/default/production/_ext/840851172/policy_manager.o
                0x00008abc                DPM_GetTypeCStates

.text.DPM_IsPort_VCONN_Source%215
                0x00008ad4       0x18
 .text.DPM_IsPort_VCONN_Source
                0x00008ad4       0x18 build/default/production/_ext/840851172/policy_manager.o
                0x00008ad4                DPM_IsPort_VCONN_Source

.text.DPM_VCONNPowerGood_TimerCB%216
                0x00008aec       0x18
 .text.DPM_VCONNPowerGood_TimerCB
                0x00008aec       0x18 build/default/production/_ext/840851172/policy_manager.o
                0x00008aec                DPM_VCONNPowerGood_TimerCB

.rodata.au16BBTxFallDACValues%217
                0x00008b04       0x18
 .rodata.au16BBTxFallDACValues
                0x00008b04       0x18 build/default/production/_ext/840851172/protocol_layer.o
                0x00008b04                au16BBTxFallDACValues

.rodata.au16BBTxRiseDACValues%218
                0x00008b1c       0x18
 .rodata.au16BBTxRiseDACValues
                0x00008b1c       0x18 build/default/production/_ext/840851172/protocol_layer.o
                0x00008b1c                au16BBTxRiseDACValues

.text.TypeC_PowerGood_TimerCB%219
                0x00008b34       0x18
 .text.TypeC_PowerGood_TimerCB
                0x00008b34       0x18 build/default/production/_ext/840851172/typeC_control.o
                0x00008b34                TypeC_PowerGood_TimerCB

.text.TypeC_StateChange_TimerCB%220
                0x00008b4c       0x18
 .text.TypeC_StateChange_TimerCB
                0x00008b4c       0x18 build/default/production/_ext/840851172/typeC_control.o
                0x00008b4c                TypeC_StateChange_TimerCB

.text.TypeC_KillTypeCTimer%221
                0x00008b64       0x18
 .text.TypeC_KillTypeCTimer
                0x00008b64       0x18 build/default/production/_ext/840851172/typeC_control.o
                0x00008b64                TypeC_KillTypeCTimer

.text.UPD_GPIOSetIntrAlert%222
                0x00008b7c       0x18
 .text.UPD_GPIOSetIntrAlert
                0x00008b7c       0x18 build/default/production/_ext/840851172/upd_hw.o
                0x00008b7c                UPD_GPIOSetIntrAlert

.text.DPM_RunStateMachine%223
                0x00008b94       0x16
 .text.DPM_RunStateMachine
                0x00008b94       0x16 build/default/production/_ext/840851172/policy_manager.o
                0x00008b94                DPM_RunStateMachine

.text.SAMD20_UPD350ResetGPIOInit%224
                0x00008bac       0x14
 .text.SAMD20_UPD350ResetGPIOInit
                0x00008bac       0x14 build/default/production/_ext/1671623073/Drivers.o
                0x00008bac                SAMD20_UPD350ResetGPIOInit

.text.SAMD20_EnterCriticalSection%225
                0x00008bc0       0x14
 .text.SAMD20_EnterCriticalSection
                0x00008bc0       0x14 build/default/production/_ext/1671623073/Drivers.o
                0x00008bc0                SAMD20_EnterCriticalSection

.text.SAMD20_ExitCriticalSection%226
                0x00008bd4       0x14
 .text.SAMD20_ExitCriticalSection
                0x00008bd4       0x14 build/default/production/_ext/1671623073/Drivers.o
                0x00008bd4                SAMD20_ExitCriticalSection

.rodata.u32aPDOPower%227
                0x00008be8       0x14
 .rodata.u32aPDOPower
                0x00008be8       0x14 build/default/production/_ext/1671623073/mpq_dc_dc_control.o

.text.PE_StateChange_TimerCB%228
                0x00008bfc       0x14
 .text.PE_StateChange_TimerCB
                0x00008bfc       0x14 build/default/production/_ext/840851172/policy_engine.o
                0x00008bfc                PE_StateChange_TimerCB

.text.PE_SubStateChange_TimerCB%229
                0x00008c10       0x14
 .text.PE_SubStateChange_TimerCB
                0x00008c10       0x14 build/default/production/_ext/840851172/policy_engine.o
                0x00008c10                PE_SubStateChange_TimerCB

.text.PE_SetHardResetReceiveFlag%230
                0x00008c24       0x14
 .text.PE_SetHardResetReceiveFlag
                0x00008c24       0x14 build/default/production/_ext/840851172/policy_engine.o
                0x00008c24                PE_SetHardResetReceiveFlag

.text.DPM_GetPoweredCablePresence%231
                0x00008c38       0x14
 .text.DPM_GetPoweredCablePresence
                0x00008c38       0x14 build/default/production/_ext/840851172/policy_manager.o
                0x00008c38                DPM_GetPoweredCablePresence

.text.DPM_CurrentCutDown%232
                0x00008c4c       0x14
 .text.DPM_CurrentCutDown
                0x00008c4c       0x14 build/default/production/_ext/840851172/policy_manager.o
                0x00008c4c                DPM_CurrentCutDown

.text.DPM_IsHardResetInProgress%233
                0x00008c60       0x14
 .text.DPM_IsHardResetInProgress
                0x00008c60       0x14 build/default/production/_ext/840851172/policy_manager.o
                0x00008c60                DPM_IsHardResetInProgress

.text.DPM_ResetVCONNErrorCnt%234
                0x00008c74       0x14
 .text.DPM_ResetVCONNErrorCnt
                0x00008c74       0x14 build/default/production/_ext/840851172/policy_manager.o
                0x00008c74                DPM_ResetVCONNErrorCnt

.text.UPD_GPIOGenericOutputInit.part.0%235
                0x00008c88       0x14
 .text.UPD_GPIOGenericOutputInit.part.0
                0x00008c88       0x14 build/default/production/_ext/840851172/portpower_control.o

.text.PRL_ProtocolResetAllSOPs%236
                0x00008c9c       0x14
 .text.PRL_ProtocolResetAllSOPs
                0x00008c9c       0x14 build/default/production/_ext/840851172/protocol_layer.o
                0x00008c9c                PRL_ProtocolResetAllSOPs

.text.TypeC_SubStateChange_TimerCB%237
                0x00008cb0       0x14
 .text.TypeC_SubStateChange_TimerCB
                0x00008cb0       0x14 build/default/production/_ext/840851172/typeC_control.o
                0x00008cb0                TypeC_SubStateChange_TimerCB

.text%238       0x00008cc4       0x3c
 .text          0x00008cc4       0x14 c:/program files (x86)/microchip/xc32/v2.30/bin/bin/../../lib/gcc/pic32c/6.2.1\libgcc.a(_thumb1_case_uqi.o)
                0x00008cc4                __gnu_thumb1_case_uqi
 .text          0x00008cd8       0x14 c:/program files (x86)/microchip/xc32/v2.30/bin/bin/../../lib/gcc/pic32c/6.2.1\libgcc.a(_thumb1_case_shi.o)
                0x00008cd8                __gnu_thumb1_case_shi
 .text          0x00008cec       0x14 c:/program files (x86)/microchip/xc32/v2.30/bin/bin/../../lib/gcc/pic32c/6.2.1\libgcc.a(_thumb1_case_uhi.o)
                0x00008cec                __gnu_thumb1_case_uhi

.text.SAMD20_MemCpy%241
                0x00008d00       0x12
 .text.SAMD20_MemCpy
                0x00008d00       0x12 build/default/production/_ext/1671623073/Drivers.o
                0x00008d00                SAMD20_MemCpy

.text.UPD_RegWriteByte%242
                0x00008d12       0x12
 .text.UPD_RegWriteByte
                0x00008d12       0x12 build/default/production/_ext/840851172/upd_hw.o
                0x00008d12                UPD_RegWriteByte

.text.UPD_RegWriteWord%243
                0x00008d24       0x12
 .text.UPD_RegWriteWord
                0x00008d24       0x12 build/default/production/_ext/840851172/upd_hw.o
                0x00008d24                UPD_RegWriteWord

.text.UPD_RegReadByte%244
                0x00008d36       0x12
 .text.UPD_RegReadByte
                0x00008d36       0x12 build/default/production/_ext/840851172/upd_hw.o
                0x00008d36                UPD_RegReadByte

.text.UPD_RegReadWord%245
                0x00008d48       0x12
 .text.UPD_RegReadWord
                0x00008d48       0x12 build/default/production/_ext/840851172/upd_hw.o
                0x00008d48                UPD_RegReadWord

.text.EIC_InterruptEnable%246
                0x00008d5c       0x10
 .text.EIC_InterruptEnable
                0x00008d5c       0x10 build/default/production/_ext/60167341/plib_eic.o
                0x00008d5c                EIC_InterruptEnable

.text.SAMD20_SPIWritedriver%247
                0x00008d6c       0x10
 .text.SAMD20_SPIWritedriver
                0x00008d6c       0x10 build/default/production/_ext/1671623073/Drivers.o
                0x00008d6c                SAMD20_SPIWritedriver

.text.DPM_SetTypeCState%248
                0x00008d7c       0x10
 .text.DPM_SetTypeCState
                0x00008d7c       0x10 build/default/production/_ext/840851172/policy_manager.o
                0x00008d7c                DPM_SetTypeCState

.text.DPM_VConnOnOff%249
                0x00008d8c       0x10
 .text.DPM_VConnOnOff
                0x00008d8c       0x10 build/default/production/_ext/840851172/policy_manager.o
                0x00008d8c                DPM_VConnOnOff

.rodata.au16CCThrVal%250
                0x00008d9c       0x10
 .rodata.au16CCThrVal
                0x00008d9c       0x10 build/default/production/_ext/840851172/typeC_control.o
                0x00008d9c                au16CCThrVal

.text.memset%251
                0x00008dac       0x10
 .text.memset   0x00008dac       0x10 c:/program files (x86)/microchip/xc32/v2.30/bin/bin/../../lib/gcc/pic32c/6.2.1/../../../../pic32c/lib\libc.a(lib_a-memset.o)
                0x00008dac                memset

.text.SAMD20_I2CDCDCWriteReadDriver%252
                0x00008dbc        0xe
 .text.SAMD20_I2CDCDCWriteReadDriver
                0x00008dbc        0xe build/default/production/_ext/1671623073/Drivers.o
                0x00008dbc                SAMD20_I2CDCDCWriteReadDriver

.text.NVMCTRL_Initialize%253
                0x00008dcc        0xc
 .text.NVMCTRL_Initialize
                0x00008dcc        0xc build/default/production/_ext/1593096446/plib_nvmctrl.o
                0x00008dcc                NVMCTRL_Initialize

.text.PORT_GroupWrite%254
                0x00008dd8        0xc
 .text.PORT_GroupWrite
                0x00008dd8        0xc build/default/production/_ext/1865521619/plib_port.o
                0x00008dd8                PORT_GroupWrite

.text.TC0_TimerCallbackRegister%255
                0x00008de4        0xc
 .text.TC0_TimerCallbackRegister
                0x00008de4        0xc build/default/production/_ext/829342655/plib_tc0.o
                0x00008de4                TC0_TimerCallbackRegister

.text.SAMD20_HWTimerCallback%256
                0x00008df0        0xc
 .text.SAMD20_HWTimerCallback
                0x00008df0        0xc build/default/production/_ext/1671623073/Drivers.o

.text.MPQDCDC_HandleAlertISR%257
                0x00008dfc        0xc
 .text.MPQDCDC_HandleAlertISR
                0x00008dfc        0xc build/default/production/_ext/1671623073/mpq_dc_dc_control.o
                0x00008dfc                MPQDCDC_HandleAlertISR

.text.SAMD20_I2CDCDCAlertCallback%258
                0x00008e08        0xa
 .text.SAMD20_I2CDCDCAlertCallback
                0x00008e08        0xa build/default/production/_ext/1671623073/Drivers.o
                0x00008e08                SAMD20_I2CDCDCAlertCallback

.text.SAMD20_UPD350AlertCallback%259
                0x00008e12        0xa
 .text.SAMD20_UPD350AlertCallback
                0x00008e12        0xa build/default/production/_ext/1671623073/Drivers.o

.text.SAMD20_SPIInitialisation%260
                0x00008e1c        0xa
 .text.SAMD20_SPIInitialisation
                0x00008e1c        0xa build/default/production/_ext/1671623073/Drivers.o
                0x00008e1c                SAMD20_SPIInitialisation

.text.SAMD20_I2CDCDCInitialisation%261
                0x00008e26        0xa
 .text.SAMD20_I2CDCDCInitialisation
                0x00008e26        0xa build/default/production/_ext/1671623073/Drivers.o
                0x00008e26                SAMD20_I2CDCDCInitialisation

.rodata.au8BMCEncoderRegValues%262
                0x00008e30        0xa
 .rodata.au8BMCEncoderRegValues
                0x00008e30        0xa build/default/production/_ext/840851172/protocol_layer.o
                0x00008e30                au8BMCEncoderRegValues

.text.SAMD20_I2CDCDCWriteDriver%263
                0x00008e3a        0x8
 .text.SAMD20_I2CDCDCWriteDriver
                0x00008e3a        0x8 build/default/production/_ext/1671623073/Drivers.o
                0x00008e3a                SAMD20_I2CDCDCWriteDriver

.text.SAMD20_I2CDCDCIsBusyDriver%264
                0x00008e42        0x8
 .text.SAMD20_I2CDCDCIsBusyDriver
                0x00008e42        0x8 build/default/production/_ext/1671623073/Drivers.o
                0x00008e42                SAMD20_I2CDCDCIsBusyDriver

.text.PB_TimerEnd%265
                0x00008e4a        0x8
 .text.PB_TimerEnd
                0x00008e4a        0x8 build/default/production/_ext/1936174342/PB_Helper.o
                0x00008e4a                PB_TimerEnd

.text.MchpPSF_UPDIrqHandler%266
                0x00008e52        0x8
 .text.MchpPSF_UPDIrqHandler
                0x00008e52        0x8 build/default/production/_ext/840851172/pd_main.o
                0x00008e52                MchpPSF_UPDIrqHandler

.text.MchpPSF_PDTimerHandler%267
                0x00008e5a        0x8
 .text.MchpPSF_PDTimerHandler
                0x00008e5a        0x8 build/default/production/_ext/840851172/pd_main.o
                0x00008e5a                MchpPSF_PDTimerHandler

.text.PWRCTRL_SetPortPower%268
                0x00008e62        0x8
 .text.PWRCTRL_SetPortPower
                0x00008e62        0x8 build/default/production/_ext/840851172/portpower_control.o
                0x00008e62                PWRCTRL_SetPortPower

.text.PRL_ProtocolspecificSOPReset%269
                0x00008e6a        0x8
 .text.PRL_ProtocolspecificSOPReset
                0x00008e6a        0x8 build/default/production/_ext/840851172/protocol_layer.o
                0x00008e6a                PRL_ProtocolspecificSOPReset

.text.PORT_GroupInputEnable%270
                0x00008e72        0x4
 .text.PORT_GroupInputEnable
                0x00008e72        0x4 build/default/production/_ext/1865521619/plib_port.o
                0x00008e72                PORT_GroupInputEnable

.text.SAMD20_MemCmp%271
                0x00008e76        0x4
 .text.SAMD20_MemCmp
                0x00008e76        0x4 build/default/production/_ext/1671623073/Drivers.o
                0x00008e76                SAMD20_MemCmp

.rodata.u8aMPQI2CSlvAddr%272
                0x00008e7a        0x4
 .rodata.u8aMPQI2CSlvAddr
                0x00008e7a        0x4 build/default/production/_ext/1671623073/mpq_dc_dc_control.o

.text%273       0x00008e80        0x4
 .text          0x00008e80        0x4 c:/program files (x86)/microchip/xc32/v2.30/bin/bin/../../lib/gcc/pic32c/6.2.1\libgcc.a(_dvmd_tls.o)
                0x00008e80                __aeabi_idiv0
                0x00008e80                __aeabi_ldiv0

.rodata.CSWTCH.37%274
                0x00008e84        0x3
 .rodata.CSWTCH.37
                0x00008e84        0x3 build/default/production/_ext/840851172/upd_hw.o

.text.Dummy_Handler%275
                0x000069e6        0x2
 .text.Dummy_Handler
                0x000069e6        0x2 build/default/production/_ext/1171490990/interrupts.o
                0x000069e6                SVCall_Handler
                0x000069e6                TC2_Handler
                0x000069e6                AC_Handler
                0x000069e6                SysTick_Handler
                0x000069e6                PendSV_Handler
                0x000069e6                SERCOM1_Handler
                0x000069e6                ADC_Handler
                0x000069e6                SERCOM2_Handler
                0x000069e6                RTC_Handler
                0x000069e6                WDT_Handler
                0x000069e6                TC4_Handler
                0x000069e6                TC1_Handler
                0x000069e6                TC3_Handler
                0x000069e6                Dummy_Handler
                0x000069e6                PM_Handler
                0x000069e6                SERCOM0_SPI_InterruptHandler
                0x000069e6                EVSYS_Handler
                0x000069e6                NVMCTRL_Handler
                0x000069e6                DAC_Handler
                0x000069e6                PTC_Handler
                0x000069e6                TC5_Handler
                0x000069e6                SYSCTRL_Handler

.text.NonMaskableInt_Handler%276
                0x000079fa        0x2
 .text.NonMaskableInt_Handler
                0x000079fa        0x2 build/default/production/_ext/1171490990/exceptions.o
                0x000079fa                NonMaskableInt_Handler

.text.HardFault_Handler%277
                0x00007baa        0x2
 .text.HardFault_Handler
                0x00007baa        0x2 build/default/production/_ext/1171490990/exceptions.o
                0x00007baa                HardFault_Handler
